Component: ARM Compiler 5.05 update 1 (build 106) Tool: armlink [4d0efa]

==============================================================================

Section Cross References

    startup_stm32f40_41xxx.o(STACK) refers (Special) to heapauxi.o(.text) for __use_two_region_memory
    startup_stm32f40_41xxx.o(HEAP) refers (Special) to heapauxi.o(.text) for __use_two_region_memory
    startup_stm32f40_41xxx.o(RESET) refers (Special) to heapauxi.o(.text) for __use_two_region_memory
    startup_stm32f40_41xxx.o(RESET) refers to startup_stm32f40_41xxx.o(STACK) for __initial_sp
    startup_stm32f40_41xxx.o(RESET) refers to startup_stm32f40_41xxx.o(.text) for Reset_Handler
    startup_stm32f40_41xxx.o(RESET) refers to stm32f4xx_it.o(i.NMI_Handler) for NMI_Handler
    startup_stm32f40_41xxx.o(RESET) refers to stm32f4xx_it.o(i.HardFault_Handler) for HardFault_Handler
    startup_stm32f40_41xxx.o(RESET) refers to stm32f4xx_it.o(i.MemManage_Handler) for MemManage_Handler
    startup_stm32f40_41xxx.o(RESET) refers to stm32f4xx_it.o(i.BusFault_Handler) for BusFault_Handler
    startup_stm32f40_41xxx.o(RESET) refers to stm32f4xx_it.o(i.UsageFault_Handler) for UsageFault_Handler
    startup_stm32f40_41xxx.o(RESET) refers to port.o(.emb_text) for vPortSVCHandler
    startup_stm32f40_41xxx.o(RESET) refers to stm32f4xx_it.o(i.DebugMon_Handler) for DebugMon_Handler
    startup_stm32f40_41xxx.o(RESET) refers to port.o(i.xPortSysTickHandler) for xPortSysTickHandler
    startup_stm32f40_41xxx.o(RESET) refers to gsm.o(i.DMA1_Stream3_IRQHandler) for DMA1_Stream3_IRQHandler
    startup_stm32f40_41xxx.o(RESET) refers to ballast_comm.o(i.DMA1_Stream4_IRQHandler) for DMA1_Stream4_IRQHandler
    startup_stm32f40_41xxx.o(RESET) refers to electric.o(i.USART1_IRQHandler) for USART1_IRQHandler
    startup_stm32f40_41xxx.o(RESET) refers to gsm.o(i.USART3_IRQHandler) for USART3_IRQHandler
    startup_stm32f40_41xxx.o(RESET) refers to ballast_comm.o(i.UART4_IRQHandler) for UART4_IRQHandler
    startup_stm32f40_41xxx.o(RESET) refers to electric.o(i.DMA2_Stream7_IRQHandler) for DMA2_Stream7_IRQHandler
    startup_stm32f40_41xxx.o(RESET) refers to sys_debug.o(i.USART6_IRQHandler) for USART6_IRQHandler
    startup_stm32f40_41xxx.o(.text) refers (Special) to heapauxi.o(.text) for __use_two_region_memory
    startup_stm32f40_41xxx.o(.text) refers to system_stm32f4xx.o(i.SystemInit) for SystemInit
    startup_stm32f40_41xxx.o(.text) refers to __main.o(!!!main) for __main
    startup_stm32f40_41xxx.o(.text) refers to startup_stm32f40_41xxx.o(HEAP) for Heap_Mem
    startup_stm32f40_41xxx.o(.text) refers to startup_stm32f40_41xxx.o(STACK) for Stack_Mem
    system_stm32f4xx.o(i.SystemCoreClockUpdate) refers to system_stm32f4xx.o(.data) for SystemCoreClock
    system_stm32f4xx.o(i.SystemInit) refers to system_stm32f4xx.o(i.SetSysClock) for SetSysClock
    stm32f4xx_gpio.o(i.GPIO_DeInit) refers to stm32f4xx_rcc.o(i.RCC_AHB1PeriphResetCmd) for RCC_AHB1PeriphResetCmd
    stm32f4xx_pwr.o(i.PWR_DeInit) refers to stm32f4xx_rcc.o(i.RCC_APB1PeriphResetCmd) for RCC_APB1PeriphResetCmd
    stm32f4xx_rcc.o(i.RCC_GetClocksFreq) refers to stm32f4xx_rcc.o(.data) for APBAHBPrescTable
    stm32f4xx_rcc.o(i.RCC_WaitForHSEStartUp) refers to stm32f4xx_rcc.o(i.RCC_GetFlagStatus) for RCC_GetFlagStatus
    stm32f4xx_usart.o(i.USART_DeInit) refers to stm32f4xx_rcc.o(i.RCC_APB2PeriphResetCmd) for RCC_APB2PeriphResetCmd
    stm32f4xx_usart.o(i.USART_DeInit) refers to stm32f4xx_rcc.o(i.RCC_APB1PeriphResetCmd) for RCC_APB1PeriphResetCmd
    stm32f4xx_usart.o(i.USART_Init) refers to stm32f4xx_rcc.o(i.RCC_GetClocksFreq) for RCC_GetClocksFreq
    stm32f4xx_flash.o(i.FLASH_EraseAllBank1Sectors) refers to stm32f4xx_flash.o(i.FLASH_WaitForLastOperation) for FLASH_WaitForLastOperation
    stm32f4xx_flash.o(i.FLASH_EraseAllBank2Sectors) refers to stm32f4xx_flash.o(i.FLASH_WaitForLastOperation) for FLASH_WaitForLastOperation
    stm32f4xx_flash.o(i.FLASH_EraseAllSectors) refers to stm32f4xx_flash.o(i.FLASH_WaitForLastOperation) for FLASH_WaitForLastOperation
    stm32f4xx_flash.o(i.FLASH_EraseSector) refers to stm32f4xx_flash.o(i.FLASH_WaitForLastOperation) for FLASH_WaitForLastOperation
    stm32f4xx_flash.o(i.FLASH_OB_Launch) refers to stm32f4xx_flash.o(i.FLASH_WaitForLastOperation) for FLASH_WaitForLastOperation
    stm32f4xx_flash.o(i.FLASH_OB_PCROP1Config) refers to stm32f4xx_flash.o(i.FLASH_WaitForLastOperation) for FLASH_WaitForLastOperation
    stm32f4xx_flash.o(i.FLASH_OB_PCROPConfig) refers to stm32f4xx_flash.o(i.FLASH_WaitForLastOperation) for FLASH_WaitForLastOperation
    stm32f4xx_flash.o(i.FLASH_OB_RDPConfig) refers to stm32f4xx_flash.o(i.FLASH_WaitForLastOperation) for FLASH_WaitForLastOperation
    stm32f4xx_flash.o(i.FLASH_OB_UserConfig) refers to stm32f4xx_flash.o(i.FLASH_WaitForLastOperation) for FLASH_WaitForLastOperation
    stm32f4xx_flash.o(i.FLASH_OB_WRP1Config) refers to stm32f4xx_flash.o(i.FLASH_WaitForLastOperation) for FLASH_WaitForLastOperation
    stm32f4xx_flash.o(i.FLASH_OB_WRPConfig) refers to stm32f4xx_flash.o(i.FLASH_WaitForLastOperation) for FLASH_WaitForLastOperation
    stm32f4xx_flash.o(i.FLASH_ProgramByte) refers to stm32f4xx_flash.o(i.FLASH_WaitForLastOperation) for FLASH_WaitForLastOperation
    stm32f4xx_flash.o(i.FLASH_ProgramDoubleWord) refers to stm32f4xx_flash.o(i.FLASH_WaitForLastOperation) for FLASH_WaitForLastOperation
    stm32f4xx_flash.o(i.FLASH_ProgramHalfWord) refers to stm32f4xx_flash.o(i.FLASH_WaitForLastOperation) for FLASH_WaitForLastOperation
    stm32f4xx_flash.o(i.FLASH_ProgramWord) refers to stm32f4xx_flash.o(i.FLASH_WaitForLastOperation) for FLASH_WaitForLastOperation
    stm32f4xx_flash.o(i.FLASH_WaitForLastOperation) refers to stm32f4xx_flash.o(i.FLASH_GetStatus) for FLASH_GetStatus
    stm32f4xx_fsmc.o(i.FSMC_NORSRAMStructInit) refers to stm32f4xx_fsmc.o(.constdata) for FSMC_DefaultTimingStruct
    stm32f4xx_rtc.o(i.RTC_CoarseCalibCmd) refers to stm32f4xx_rtc.o(i.RTC_EnterInitMode) for RTC_EnterInitMode
    stm32f4xx_rtc.o(i.RTC_CoarseCalibCmd) refers to stm32f4xx_rtc.o(i.RTC_ExitInitMode) for RTC_ExitInitMode
    stm32f4xx_rtc.o(i.RTC_CoarseCalibConfig) refers to stm32f4xx_rtc.o(i.RTC_EnterInitMode) for RTC_EnterInitMode
    stm32f4xx_rtc.o(i.RTC_CoarseCalibConfig) refers to stm32f4xx_rtc.o(i.RTC_ExitInitMode) for RTC_ExitInitMode
    stm32f4xx_rtc.o(i.RTC_DeInit) refers to stm32f4xx_rtc.o(i.RTC_EnterInitMode) for RTC_EnterInitMode
    stm32f4xx_rtc.o(i.RTC_DeInit) refers to stm32f4xx_rtc.o(i.RTC_WaitForSynchro) for RTC_WaitForSynchro
    stm32f4xx_rtc.o(i.RTC_GetAlarm) refers to stm32f4xx_rtc.o(i.RTC_Bcd2ToByte) for RTC_Bcd2ToByte
    stm32f4xx_rtc.o(i.RTC_GetDate) refers to stm32f4xx_rtc.o(i.RTC_Bcd2ToByte) for RTC_Bcd2ToByte
    stm32f4xx_rtc.o(i.RTC_GetTime) refers to stm32f4xx_rtc.o(i.RTC_Bcd2ToByte) for RTC_Bcd2ToByte
    stm32f4xx_rtc.o(i.RTC_GetTimeStamp) refers to stm32f4xx_rtc.o(i.RTC_Bcd2ToByte) for RTC_Bcd2ToByte
    stm32f4xx_rtc.o(i.RTC_Init) refers to stm32f4xx_rtc.o(i.RTC_EnterInitMode) for RTC_EnterInitMode
    stm32f4xx_rtc.o(i.RTC_Init) refers to stm32f4xx_rtc.o(i.RTC_ExitInitMode) for RTC_ExitInitMode
    stm32f4xx_rtc.o(i.RTC_RefClockCmd) refers to stm32f4xx_rtc.o(i.RTC_EnterInitMode) for RTC_EnterInitMode
    stm32f4xx_rtc.o(i.RTC_RefClockCmd) refers to stm32f4xx_rtc.o(i.RTC_ExitInitMode) for RTC_ExitInitMode
    stm32f4xx_rtc.o(i.RTC_SetAlarm) refers to stm32f4xx_rtc.o(i.RTC_Bcd2ToByte) for RTC_Bcd2ToByte
    stm32f4xx_rtc.o(i.RTC_SetAlarm) refers to stm32f4xx_rtc.o(i.RTC_ByteToBcd2) for RTC_ByteToBcd2
    stm32f4xx_rtc.o(i.RTC_SetDate) refers to stm32f4xx_rtc.o(i.RTC_Bcd2ToByte) for RTC_Bcd2ToByte
    stm32f4xx_rtc.o(i.RTC_SetDate) refers to stm32f4xx_rtc.o(i.RTC_ByteToBcd2) for RTC_ByteToBcd2
    stm32f4xx_rtc.o(i.RTC_SetDate) refers to stm32f4xx_rtc.o(i.RTC_EnterInitMode) for RTC_EnterInitMode
    stm32f4xx_rtc.o(i.RTC_SetDate) refers to stm32f4xx_rtc.o(i.RTC_ExitInitMode) for RTC_ExitInitMode
    stm32f4xx_rtc.o(i.RTC_SetDate) refers to stm32f4xx_rtc.o(i.RTC_WaitForSynchro) for RTC_WaitForSynchro
    stm32f4xx_rtc.o(i.RTC_SetTime) refers to stm32f4xx_rtc.o(i.RTC_Bcd2ToByte) for RTC_Bcd2ToByte
    stm32f4xx_rtc.o(i.RTC_SetTime) refers to stm32f4xx_rtc.o(i.RTC_ByteToBcd2) for RTC_ByteToBcd2
    stm32f4xx_rtc.o(i.RTC_SetTime) refers to stm32f4xx_rtc.o(i.RTC_EnterInitMode) for RTC_EnterInitMode
    stm32f4xx_rtc.o(i.RTC_SetTime) refers to stm32f4xx_rtc.o(i.RTC_ExitInitMode) for RTC_ExitInitMode
    stm32f4xx_rtc.o(i.RTC_SetTime) refers to stm32f4xx_rtc.o(i.RTC_WaitForSynchro) for RTC_WaitForSynchro
    stm32f4xx_rtc.o(i.RTC_SynchroShiftConfig) refers to stm32f4xx_rtc.o(i.RTC_WaitForSynchro) for RTC_WaitForSynchro
    freertos_hook.o(i.vApplicationStackOverflowHook) refers to _printf_percent.o(.ARM.Collect$$_printf_percent$$00000000) for _printf_percent
    freertos_hook.o(i.vApplicationStackOverflowHook) refers to _printf_s.o(.ARM.Collect$$_printf_percent$$00000014) for _printf_s
    freertos_hook.o(i.vApplicationStackOverflowHook) refers to _printf_str.o(.text) for _printf_str
    freertos_hook.o(i.vApplicationStackOverflowHook) refers to tasks.o(i.xTaskGetCurrentTaskHandle) for xTaskGetCurrentTaskHandle
    freertos_hook.o(i.vApplicationStackOverflowHook) refers to tasks.o(i.pcTaskGetTaskName) for pcTaskGetTaskName
    freertos_hook.o(i.vApplicationStackOverflowHook) refers to noretval__2sprintf.o(.text) for __2sprintf
    freertos_hook.o(i.vApplicationStackOverflowHook) refers to sys_debug.o(i.printf_str) for printf_str
    ballast_comm.o(i.BallastComm1DMA_TxBuff) refers to queue.o(i.xQueueGenericReceive) for xQueueGenericReceive
    ballast_comm.o(i.BallastComm1DMA_TxBuff) refers to rt_memcpy_v6.o(.text) for __aeabi_memcpy
    ballast_comm.o(i.BallastComm1DMA_TxBuff) refers to stm32f4xx_dma.o(i.DMA_Cmd) for DMA_Cmd
    ballast_comm.o(i.BallastComm1DMA_TxBuff) refers to stm32f4xx_dma.o(i.DMA_GetCmdStatus) for DMA_GetCmdStatus
    ballast_comm.o(i.BallastComm1DMA_TxBuff) refers to stm32f4xx_dma.o(i.DMA_SetCurrDataCounter) for DMA_SetCurrDataCounter
    ballast_comm.o(i.BallastComm1DMA_TxBuff) refers to ballast_comm.o(.data) for ballastComm1Tx_semaphore
    ballast_comm.o(i.BallastComm1DMA_TxBuff) refers to ballast_comm.o(.bss) for BallastComm1TxData
    ballast_comm.o(i.BallastComm1InitHardware) refers to ballast_comm.o(i.BallastUartInit) for BallastUartInit
    ballast_comm.o(i.BallastComm1InitHardware) refers to ballast_comm.o(i.Ballast_TX_DMA_Init) for Ballast_TX_DMA_Init
    ballast_comm.o(i.BallastComm1RxTxDataInit) refers to rt_memclr.o(.text) for __aeabi_memclr
    ballast_comm.o(i.BallastComm1RxTxDataInit) refers to ballast_comm.o(.bss) for BallastComm1RxData
    ballast_comm.o(i.BallastCommInit) refers to ballast_comm.o(i.BallastComm1InitHardware) for BallastComm1InitHardware
    ballast_comm.o(i.BallastCommInit) refers to ballast_comm.o(i.BallastComm1RxTxDataInit) for BallastComm1RxTxDataInit
    ballast_comm.o(i.BallastCommInit) refers to queue.o(i.xQueueGenericCreate) for xQueueGenericCreate
    ballast_comm.o(i.BallastCommInit) refers to queue.o(i.xQueueGenericSend) for xQueueGenericSend
    ballast_comm.o(i.BallastCommInit) refers to tasks.o(i.xTaskGenericCreate) for xTaskGenericCreate
    ballast_comm.o(i.BallastCommInit) refers to ballast_comm.o(.data) for ballastComm1Tx_semaphore
    ballast_comm.o(i.BallastCommInit) refers to ballast_comm.o(i.vBallastComm1Task) for vBallastComm1Task
    ballast_comm.o(i.BallastRxDataClear) refers to rt_memclr.o(.text) for __aeabi_memclr
    ballast_comm.o(i.BallastUartInit) refers to stm32f4xx_rcc.o(i.RCC_AHB1PeriphClockCmd) for RCC_AHB1PeriphClockCmd
    ballast_comm.o(i.BallastUartInit) refers to stm32f4xx_rcc.o(i.RCC_APB1PeriphClockCmd) for RCC_APB1PeriphClockCmd
    ballast_comm.o(i.BallastUartInit) refers to stm32f4xx_gpio.o(i.GPIO_PinAFConfig) for GPIO_PinAFConfig
    ballast_comm.o(i.BallastUartInit) refers to stm32f4xx_gpio.o(i.GPIO_Init) for GPIO_Init
    ballast_comm.o(i.BallastUartInit) refers to stm32f4xx_usart.o(i.USART_Init) for USART_Init
    ballast_comm.o(i.BallastUartInit) refers to stm32f4xx_usart.o(i.USART_Cmd) for USART_Cmd
    ballast_comm.o(i.BallastUartInit) refers to stm32f4xx_usart.o(i.USART_ITConfig) for USART_ITConfig
    ballast_comm.o(i.BallastUartInit) refers to misc.o(i.NVIC_Init) for NVIC_Init
    ballast_comm.o(i.Ballast_TX_DMA_Init) refers to stm32f4xx_rcc.o(i.RCC_AHB1PeriphClockCmd) for RCC_AHB1PeriphClockCmd
    ballast_comm.o(i.Ballast_TX_DMA_Init) refers to stm32f4xx_dma.o(i.DMA_DeInit) for DMA_DeInit
    ballast_comm.o(i.Ballast_TX_DMA_Init) refers to stm32f4xx_dma.o(i.DMA_GetCmdStatus) for DMA_GetCmdStatus
    ballast_comm.o(i.Ballast_TX_DMA_Init) refers to stm32f4xx_dma.o(i.DMA_Init) for DMA_Init
    ballast_comm.o(i.Ballast_TX_DMA_Init) refers to stm32f4xx_dma.o(i.DMA_ITConfig) for DMA_ITConfig
    ballast_comm.o(i.Ballast_TX_DMA_Init) refers to stm32f4xx_usart.o(i.USART_DMACmd) for USART_DMACmd
    ballast_comm.o(i.Ballast_TX_DMA_Init) refers to misc.o(i.NVIC_Init) for NVIC_Init
    ballast_comm.o(i.Ballast_TX_DMA_Init) refers to ballast_comm.o(.bss) for BallastComm1RxData
    ballast_comm.o(i.DMA1_Stream4_IRQHandler) refers to stm32f4xx_dma.o(i.DMA_ClearFlag) for DMA_ClearFlag
    ballast_comm.o(i.DMA1_Stream4_IRQHandler) refers to queue.o(i.xQueueGenericSend) for xQueueGenericSend
    ballast_comm.o(i.DMA1_Stream4_IRQHandler) refers to ballast_comm.o(.data) for ballastComm1Tx_semaphore
    ballast_comm.o(i.UART4_IRQHandler) refers to stm32f4xx_usart.o(i.USART_GetITStatus) for USART_GetITStatus
    ballast_comm.o(i.UART4_IRQHandler) refers to stm32f4xx_usart.o(i.USART_ReceiveData) for USART_ReceiveData
    ballast_comm.o(i.UART4_IRQHandler) refers to ballast_comm.o(i.BallastRxDataClear) for BallastRxDataClear
    ballast_comm.o(i.UART4_IRQHandler) refers to common.o(i.BCC_CheckSum) for BCC_CheckSum
    ballast_comm.o(i.UART4_IRQHandler) refers to queue.o(i.xQueueGenericSendFromISR) for xQueueGenericSendFromISR
    ballast_comm.o(i.UART4_IRQHandler) refers to ballast_comm.o(.bss) for BallastComm1RxData
    ballast_comm.o(i.UART4_IRQHandler) refers to ballast_comm.o(.data) for BallastComm1Queue
    ballast_comm.o(i.vBallastComm1Task) refers to queue.o(i.xQueueGenericReceive) for xQueueGenericReceive
    ballast_comm.o(i.vBallastComm1Task) refers to common.o(i.chr2hex) for chr2hex
    ballast_comm.o(i.vBallastComm1Task) refers to ballast_comm.o(.data) for BallastComm1Queue
    ballast_comm.o(i.vBallastComm1Task) refers to ballast_comm.o(.constdata) for Ballast_MessageMaps
    ballast_comm.o(.constdata) refers to gateway_protocol.o(i.HandleGatewayParam) for HandleGatewayParam
    electric.o(i.DMA2_Stream7_IRQHandler) refers to stm32f4xx_dma.o(i.DMA_ClearFlag) for DMA_ClearFlag
    electric.o(i.DMA2_Stream7_IRQHandler) refers to stm32f4xx_dma.o(i.DMA_Cmd) for DMA_Cmd
    electric.o(i.DMA2_Stream7_IRQHandler) refers to queue.o(i.xQueueGenericSend) for xQueueGenericSend
    electric.o(i.DMA2_Stream7_IRQHandler) refers to electric.o(.data) for EleTx_semaphore
    electric.o(i.EleDMA_TxBuff) refers to queue.o(i.xQueueGenericReceive) for xQueueGenericReceive
    electric.o(i.EleDMA_TxBuff) refers to rt_memcpy_v6.o(.text) for __aeabi_memcpy
    electric.o(i.EleDMA_TxBuff) refers to stm32f4xx_dma.o(i.DMA_Cmd) for DMA_Cmd
    electric.o(i.EleDMA_TxBuff) refers to stm32f4xx_dma.o(i.DMA_GetCmdStatus) for DMA_GetCmdStatus
    electric.o(i.EleDMA_TxBuff) refers to stm32f4xx_dma.o(i.DMA_SetCurrDataCounter) for DMA_SetCurrDataCounter
    electric.o(i.EleDMA_TxBuff) refers to electric.o(.data) for EleTx_semaphore
    electric.o(i.EleDMA_TxBuff) refers to electric.o(.bss) for EleTxData
    electric.o(i.EleRxTxDataInit) refers to rt_memclr.o(.text) for __aeabi_memclr
    electric.o(i.EleRxTxDataInit) refers to electric.o(.bss) for EleRxData
    electric.o(i.ElectricInit) refers to electric.o(i.ElectrolHardwareInit) for ElectrolHardwareInit
    electric.o(i.ElectricInit) refers to electric.o(i.EleRxTxDataInit) for EleRxTxDataInit
    electric.o(i.ElectricInit) refers to queue.o(i.xQueueGenericCreate) for xQueueGenericCreate
    electric.o(i.ElectricInit) refers to queue.o(i.xQueueGenericSend) for xQueueGenericSend
    electric.o(i.ElectricInit) refers to tasks.o(i.xTaskGenericCreate) for xTaskGenericCreate
    electric.o(i.ElectricInit) refers to electric.o(.data) for EleTx_semaphore
    electric.o(i.ElectricInit) refers to electric.o(i.vElectTask) for vElectTask
    electric.o(i.ElectricRxDataClear) refers to rt_memclr.o(.text) for __aeabi_memclr
    electric.o(i.ElectricUartInit) refers to stm32f4xx_rcc.o(i.RCC_AHB1PeriphClockCmd) for RCC_AHB1PeriphClockCmd
    electric.o(i.ElectricUartInit) refers to stm32f4xx_rcc.o(i.RCC_APB2PeriphClockCmd) for RCC_APB2PeriphClockCmd
    electric.o(i.ElectricUartInit) refers to stm32f4xx_gpio.o(i.GPIO_PinAFConfig) for GPIO_PinAFConfig
    electric.o(i.ElectricUartInit) refers to stm32f4xx_gpio.o(i.GPIO_Init) for GPIO_Init
    electric.o(i.ElectricUartInit) refers to stm32f4xx_usart.o(i.USART_Init) for USART_Init
    electric.o(i.ElectricUartInit) refers to stm32f4xx_usart.o(i.USART_Cmd) for USART_Cmd
    electric.o(i.ElectricUartInit) refers to stm32f4xx_usart.o(i.USART_ITConfig) for USART_ITConfig
    electric.o(i.ElectricUartInit) refers to misc.o(i.NVIC_Init) for NVIC_Init
    electric.o(i.Electric_TX_DMA_Init) refers to stm32f4xx_rcc.o(i.RCC_AHB1PeriphClockCmd) for RCC_AHB1PeriphClockCmd
    electric.o(i.Electric_TX_DMA_Init) refers to stm32f4xx_dma.o(i.DMA_DeInit) for DMA_DeInit
    electric.o(i.Electric_TX_DMA_Init) refers to stm32f4xx_dma.o(i.DMA_GetCmdStatus) for DMA_GetCmdStatus
    electric.o(i.Electric_TX_DMA_Init) refers to stm32f4xx_dma.o(i.DMA_Init) for DMA_Init
    electric.o(i.Electric_TX_DMA_Init) refers to stm32f4xx_dma.o(i.DMA_ITConfig) for DMA_ITConfig
    electric.o(i.Electric_TX_DMA_Init) refers to stm32f4xx_usart.o(i.USART_DMACmd) for USART_DMACmd
    electric.o(i.Electric_TX_DMA_Init) refers to misc.o(i.NVIC_Init) for NVIC_Init
    electric.o(i.Electric_TX_DMA_Init) refers to electric.o(.bss) for EleTxData
    electric.o(i.ElectrolHardwareInit) refers to electric.o(i.ElectricUartInit) for ElectricUartInit
    electric.o(i.ElectrolHardwareInit) refers to electric.o(i.Electric_TX_DMA_Init) for Electric_TX_DMA_Init
    electric.o(i.USART1_IRQHandler) refers to stm32f4xx_usart.o(i.USART_GetITStatus) for USART_GetITStatus
    electric.o(i.USART1_IRQHandler) refers to stm32f4xx_usart.o(i.USART_ReceiveData) for USART_ReceiveData
    electric.o(i.USART1_IRQHandler) refers to electric.o(i.ElectricRxDataClear) for ElectricRxDataClear
    electric.o(i.USART1_IRQHandler) refers to common.o(i.BCC_CheckSum) for BCC_CheckSum
    electric.o(i.USART1_IRQHandler) refers to queue.o(i.xQueueGenericSendFromISR) for xQueueGenericSendFromISR
    electric.o(i.USART1_IRQHandler) refers to electric.o(.bss) for EleRxData
    electric.o(i.USART1_IRQHandler) refers to electric.o(.data) for ElectricQueue
    electric.o(i.vElectTask) refers to queue.o(i.xQueueGenericReceive) for xQueueGenericReceive
    electric.o(i.vElectTask) refers to common.o(i.chr2hex) for chr2hex
    electric.o(i.vElectTask) refers to electric.o(.data) for ElectricQueue
    electric.o(i.vElectTask) refers to electric.o(.constdata) for Electric_MessageMaps
    electric.o(.constdata) refers to gateway_protocol.o(i.HandleGatewayParam) for HandleGatewayParam
    gsm.o(i.DMA1_Stream3_IRQHandler) refers to stm32f4xx_dma.o(i.DMA_GetFlagStatus) for DMA_GetFlagStatus
    gsm.o(i.DMA1_Stream3_IRQHandler) refers to stm32f4xx_dma.o(i.DMA_ClearFlag) for DMA_ClearFlag
    gsm.o(i.DMA1_Stream3_IRQHandler) refers to queue.o(i.xQueueGiveFromISR) for xQueueGiveFromISR
    gsm.o(i.DMA1_Stream3_IRQHandler) refers to gsm.o(.data) for GsmTx_semaphore
    gsm.o(i.GSMInit) refers to gsm.o(i.GSMInitHardware) for GSMInitHardware
    gsm.o(i.GSMInit) refers to gsm.o(i.GsmRxTxDataInit) for GsmRxTxDataInit
    gsm.o(i.GSMInit) refers to queue.o(i.xQueueCreateMutex) for xQueueCreateMutex
    gsm.o(i.GSMInit) refers to queue.o(i.xQueueGenericCreate) for xQueueGenericCreate
    gsm.o(i.GSMInit) refers to tasks.o(i.xTaskGenericCreate) for xTaskGenericCreate
    gsm.o(i.GSMInit) refers to gsm.o(.data) for GsmTx_semaphore
    gsm.o(i.GSMInit) refers to gsm.o(i.vGSMTask) for vGSMTask
    gsm.o(i.GSMInitHardware) refers to gsm.o(i.GSM_USART_Init) for GSM_USART_Init
    gsm.o(i.GSMInitHardware) refers to gsm.o(i.GSM_CtrlPinInit) for GSM_CtrlPinInit
    gsm.o(i.GSMInitHardware) refers to gsm.o(i.GSM_TX_DMA_Init) for GSM_TX_DMA_Init
    gsm.o(i.GSM_CtrlPinInit) refers to stm32f4xx_gpio.o(i.GPIO_ResetBits) for GPIO_ResetBits
    gsm.o(i.GSM_CtrlPinInit) refers to stm32f4xx_gpio.o(i.GPIO_Init) for GPIO_Init
    gsm.o(i.GSM_ModuleStart) refers to stm32f4xx_gpio.o(i.GPIO_ResetBits) for GPIO_ResetBits
    gsm.o(i.GSM_ModuleStart) refers to tasks.o(i.vTaskDelay) for vTaskDelay
    gsm.o(i.GSM_ModuleStart) refers to stm32f4xx_gpio.o(i.GPIO_SetBits) for GPIO_SetBits
    gsm.o(i.GSM_ModuleStart) refers to gsm.o(i.SendMsgToSim) for SendMsgToSim
    gsm.o(i.GSM_TX_DMA_Init) refers to stm32f4xx_rcc.o(i.RCC_AHB1PeriphClockCmd) for RCC_AHB1PeriphClockCmd
    gsm.o(i.GSM_TX_DMA_Init) refers to stm32f4xx_dma.o(i.DMA_DeInit) for DMA_DeInit
    gsm.o(i.GSM_TX_DMA_Init) refers to stm32f4xx_dma.o(i.DMA_GetCmdStatus) for DMA_GetCmdStatus
    gsm.o(i.GSM_TX_DMA_Init) refers to stm32f4xx_dma.o(i.DMA_Init) for DMA_Init
    gsm.o(i.GSM_TX_DMA_Init) refers to stm32f4xx_dma.o(i.DMA_ITConfig) for DMA_ITConfig
    gsm.o(i.GSM_TX_DMA_Init) refers to stm32f4xx_usart.o(i.USART_DMACmd) for USART_DMACmd
    gsm.o(i.GSM_TX_DMA_Init) refers to misc.o(i.NVIC_Init) for NVIC_Init
    gsm.o(i.GSM_TX_DMA_Init) refers to gsm.o(.bss) for GsmTxData
    gsm.o(i.GSM_USART_Init) refers to stm32f4xx_rcc.o(i.RCC_AHB1PeriphClockCmd) for RCC_AHB1PeriphClockCmd
    gsm.o(i.GSM_USART_Init) refers to stm32f4xx_rcc.o(i.RCC_APB1PeriphClockCmd) for RCC_APB1PeriphClockCmd
    gsm.o(i.GSM_USART_Init) refers to stm32f4xx_gpio.o(i.GPIO_PinAFConfig) for GPIO_PinAFConfig
    gsm.o(i.GSM_USART_Init) refers to stm32f4xx_gpio.o(i.GPIO_Init) for GPIO_Init
    gsm.o(i.GSM_USART_Init) refers to stm32f4xx_usart.o(i.USART_Init) for USART_Init
    gsm.o(i.GSM_USART_Init) refers to stm32f4xx_usart.o(i.USART_Cmd) for USART_Cmd
    gsm.o(i.GSM_USART_Init) refers to stm32f4xx_usart.o(i.USART_ITConfig) for USART_ITConfig
    gsm.o(i.GSM_USART_Init) refers to misc.o(i.NVIC_Init) for NVIC_Init
    gsm.o(i.GsmDMA_TxBuff) refers to queue.o(i.xQueueGenericReceive) for xQueueGenericReceive
    gsm.o(i.GsmDMA_TxBuff) refers to stm32f4xx_dma.o(i.DMA_ClearFlag) for DMA_ClearFlag
    gsm.o(i.GsmDMA_TxBuff) refers to rt_memcpy_v6.o(.text) for __aeabi_memcpy
    gsm.o(i.GsmDMA_TxBuff) refers to stm32f4xx_dma.o(i.DMA_Cmd) for DMA_Cmd
    gsm.o(i.GsmDMA_TxBuff) refers to stm32f4xx_dma.o(i.DMA_GetCmdStatus) for DMA_GetCmdStatus
    gsm.o(i.GsmDMA_TxBuff) refers to stm32f4xx_dma.o(i.DMA_SetCurrDataCounter) for DMA_SetCurrDataCounter
    gsm.o(i.GsmDMA_TxBuff) refers to gsm.o(.data) for GsmTx_semaphore
    gsm.o(i.GsmDMA_TxBuff) refers to gsm.o(.bss) for GsmTxData
    gsm.o(i.GsmRxDataClear) refers to rt_memclr.o(.text) for __aeabi_memclr
    gsm.o(i.GsmRxTxDataInit) refers to rt_memclr.o(.text) for __aeabi_memclr
    gsm.o(i.GsmRxTxDataInit) refers to gsm.o(.bss) for GsmRxData
    gsm.o(i.GsmStartConnect) refers to _printf_percent.o(.ARM.Collect$$_printf_percent$$00000000) for _printf_percent
    gsm.o(i.GsmStartConnect) refers to _printf_s.o(.ARM.Collect$$_printf_percent$$00000014) for _printf_s
    gsm.o(i.GsmStartConnect) refers to _printf_str.o(.text) for _printf_str
    gsm.o(i.GsmStartConnect) refers to gsm.o(i.GSM_ModuleStart) for GSM_ModuleStart
    gsm.o(i.GsmStartConnect) refers to gsm.o(i.SendMsgToSim) for SendMsgToSim
    gsm.o(i.GsmStartConnect) refers to sys_debug.o(i.printf_str) for printf_str
    gsm.o(i.GsmStartConnect) refers to tasks.o(i.vTaskDelay) for vTaskDelay
    gsm.o(i.GsmStartConnect) refers to noretval__2printf.o(.text) for __2printf
    gsm.o(i.GsmStartConnect) refers to norflash.o(i.NorFlashRead) for NorFlashRead
    gsm.o(i.GsmStartConnect) refers to noretval__2sprintf.o(.text) for __2sprintf
    gsm.o(i.GsmStartConnect) refers to gsm.o(i.SwitchToCommand) for SwitchToCommand
    gsm.o(i.GsmStartConnect) refers to gsm.o(i.SwitchToData) for SwitchToData
    gsm.o(i.GsmStartConnect) refers to gsm.o(.bss) for WG_ServerParameter
    gsm.o(i.HeartRemainTCPConnect) refers to norflash.o(i.NorFlashRead) for NorFlashRead
    gsm.o(i.HeartRemainTCPConnect) refers to strncpy.o(.text) for strncpy
    gsm.o(i.HeartRemainTCPConnect) refers to gsm.o(i.SimSendData) for SimSendData
    gsm.o(i.HeartRemainTCPConnect) refers to gsm.o(.bss) for ManagementAddr
    gsm.o(i.RelinkTCP) refers to _printf_percent.o(.ARM.Collect$$_printf_percent$$00000000) for _printf_percent
    gsm.o(i.RelinkTCP) refers to _printf_s.o(.ARM.Collect$$_printf_percent$$00000014) for _printf_s
    gsm.o(i.RelinkTCP) refers to _printf_str.o(.text) for _printf_str
    gsm.o(i.RelinkTCP) refers to norflash.o(i.NorFlashRead) for NorFlashRead
    gsm.o(i.RelinkTCP) refers to noretval__2sprintf.o(.text) for __2sprintf
    gsm.o(i.RelinkTCP) refers to gsm.o(i.SendMsgToSim) for SendMsgToSim
    gsm.o(i.RelinkTCP) refers to sys_debug.o(i.printf_str) for printf_str
    gsm.o(i.RelinkTCP) refers to gsm.o(.bss) for WG_ServerParameter
    gsm.o(i.SendMsgToSim) refers to tasks.o(i.xTaskGetTickCount) for xTaskGetTickCount
    gsm.o(i.SendMsgToSim) refers to strlen.o(.text) for strlen
    gsm.o(i.SendMsgToSim) refers to gsm.o(i.GsmDMA_TxBuff) for GsmDMA_TxBuff
    gsm.o(i.SendMsgToSim) refers to queue.o(i.xQueueGenericReceive) for xQueueGenericReceive
    gsm.o(i.SendMsgToSim) refers to strstr.o(.text) for strstr
    gsm.o(i.SendMsgToSim) refers to strcmpv7m.o(.text) for strcmp
    gsm.o(i.SendMsgToSim) refers to rtc.o(i.UpdataNetTime) for UpdataNetTime
    gsm.o(i.SendMsgToSim) refers to rtc.o(i.NetTimeCentury) for NetTimeCentury
    gsm.o(i.SendMsgToSim) refers to gsm.o(.data) for GSM_AT_queue
    gsm.o(i.SimSendData) refers to queue.o(i.xQueueGenericReceive) for xQueueGenericReceive
    gsm.o(i.SimSendData) refers to strcmpv7m.o(.text) for strcmp
    gsm.o(i.SimSendData) refers to gsm.o(i.RelinkTCP) for RelinkTCP
    gsm.o(i.SimSendData) refers to gsm.o(i.GsmStartConnect) for GsmStartConnect
    gsm.o(i.SimSendData) refers to gsm.o(i.GsmDMA_TxBuff) for GsmDMA_TxBuff
    gsm.o(i.SimSendData) refers to gsm.o(.data) for GSM_AT_queue
    gsm.o(i.SwitchToCommand) refers to tasks.o(i.vTaskDelay) for vTaskDelay
    gsm.o(i.SwitchToCommand) refers to gsm.o(i.SendMsgToSim) for SendMsgToSim
    gsm.o(i.SwitchToCommand) refers to sys_debug.o(i.printf_str) for printf_str
    gsm.o(i.SwitchToData) refers to gsm.o(i.SendMsgToSim) for SendMsgToSim
    gsm.o(i.SwitchToData) refers to sys_debug.o(i.printf_str) for printf_str
    gsm.o(i.USART3_IRQHandler) refers to stm32f4xx_usart.o(i.USART_GetITStatus) for USART_GetITStatus
    gsm.o(i.USART3_IRQHandler) refers to stm32f4xx_usart.o(i.USART_ReceiveData) for USART_ReceiveData
    gsm.o(i.USART3_IRQHandler) refers to sys_debug.o(i.printf_buff) for printf_buff
    gsm.o(i.USART3_IRQHandler) refers to gsm.o(i.GsmRxDataClear) for GsmRxDataClear
    gsm.o(i.USART3_IRQHandler) refers to gsm.o(i.GsmRxDataInput) for GsmRxDataInput
    gsm.o(i.USART3_IRQHandler) refers to common.o(i.BCC_CheckSum) for BCC_CheckSum
    gsm.o(i.USART3_IRQHandler) refers to common.o(i.hex2chr) for hex2chr
    gsm.o(i.USART3_IRQHandler) refers to queue.o(i.xQueueGenericSendFromISR) for xQueueGenericSendFromISR
    gsm.o(i.USART3_IRQHandler) refers to gsm.o(.bss) for GsmRxData
    gsm.o(i.USART3_IRQHandler) refers to gsm.o(.data) for FrameType_Flag
    gsm.o(i.vGSMTask) refers to gsm.o(i.GsmStartConnect) for GsmStartConnect
    gsm.o(i.vGSMTask) refers to queue.o(i.xQueueGenericReceive) for xQueueGenericReceive
    gsm.o(i.vGSMTask) refers to common.o(i.chr2hex) for chr2hex
    gsm.o(i.vGSMTask) refers to tasks.o(i.xTaskGetTickCount) for xTaskGetTickCount
    gsm.o(i.vGSMTask) refers to gsm.o(i.HeartRemainTCPConnect) for HeartRemainTCPConnect
    gsm.o(i.vGSMTask) refers to gsm.o(.data) for GPRS_ConnectState
    gsm.o(i.vGSMTask) refers to gsm.o(.constdata) for GPRS_MessageMaps
    gsm.o(.constdata) refers to gateway_protocol.o(i.HandleGatewayParam) for HandleGatewayParam
    gsm.o(.constdata) refers to gateway_protocol.o(i.HandleLightParam) for HandleLightParam
    gsm.o(.constdata) refers to gateway_protocol.o(i.HandleStrategyDownload) for HandleStrategyDownload
    gsm.o(.constdata) refers to gateway_protocol.o(i.HandleLightDimmer) for HandleLightDimmer
    gsm.o(.constdata) refers to gateway_protocol.o(i.HandleLightOnOff) for HandleLightOnOff
    main.o(i.main) refers to misc.o(i.NVIC_PriorityGroupConfig) for NVIC_PriorityGroupConfig
    main.o(i.main) refers to norflash.o(i.NorFlashInit) for NorFlashInit
    main.o(i.main) refers to rtc.o(i.RtcInit) for RtcInit
    main.o(i.main) refers to sys_debug.o(i.UartDebugInit) for UartDebugInit
    main.o(i.main) refers to gsm.o(i.GSMInit) for GSMInit
    main.o(i.main) refers to ballast_comm.o(i.BallastCommInit) for BallastCommInit
    main.o(i.main) refers to electric.o(i.ElectricInit) for ElectricInit
    main.o(i.main) refers to km_ctrl.o(i.KM_CtrlInit) for KM_CtrlInit
    main.o(i.main) refers to ballast_protocol.o(i.AllTableInit) for AllTableInit
    main.o(i.main) refers to tasks.o(i.vTaskStartScheduler) for vTaskStartScheduler
    time_plan.o(i.TimePlanInit) refers to tasks.o(i.xTaskGenericCreate) for xTaskGenericCreate
    time_plan.o(i.TimePlanInit) refers to time_plan.o(i.vTimePlanTask) for vTimePlanTask
    sys_debug.o(i.DebugRxDataInit) refers to rt_memclr.o(.text) for __aeabi_memclr
    sys_debug.o(i.DebugRxDataInit) refers to sys_debug.o(.bss) for DebugRxData
    sys_debug.o(i.GatewaySetDebug) refers to sys_debug.o(i.printf_str) for printf_str
    sys_debug.o(i.GatewaySetDebug) refers to queue.o(i.xQueueGenericReceive) for xQueueGenericReceive
    sys_debug.o(i.GatewaySetDebug) refers to strcmpv7m.o(.text) for strcmp
    sys_debug.o(i.GatewaySetDebug) refers to sys_debug.o(i.SetWGAddr) for SetWGAddr
    sys_debug.o(i.GatewaySetDebug) refers to sys_debug.o(i.SetSeriveIPPort) for SetSeriveIPPort
    sys_debug.o(i.GatewaySetDebug) refers to sys_debug.o(.conststring) for .conststring
    sys_debug.o(i.GatewaySetDebug) refers to sys_debug.o(.data) for uartDebugQueue
    sys_debug.o(i.SetSeriveIPPort) refers to _scanf_int.o(.text) for _scanf_int
    sys_debug.o(i.SetSeriveIPPort) refers to _scanf_str.o(.text) for _scanf_string
    sys_debug.o(i.SetSeriveIPPort) refers to rt_memclr_w.o(.text) for __aeabi_memclr4
    sys_debug.o(i.SetSeriveIPPort) refers to sys_debug.o(i.printf_str) for printf_str
    sys_debug.o(i.SetSeriveIPPort) refers to queue.o(i.xQueueGenericReceive) for xQueueGenericReceive
    sys_debug.o(i.SetSeriveIPPort) refers to strcmpv7m.o(.text) for strcmp
    sys_debug.o(i.SetSeriveIPPort) refers to __0sscanf.o(.text) for __0sscanf
    sys_debug.o(i.SetSeriveIPPort) refers to strncpy.o(.text) for strncpy
    sys_debug.o(i.SetSeriveIPPort) refers to norflash.o(i.NorFlashWrite) for NorFlashWrite
    sys_debug.o(i.SetSeriveIPPort) refers to sys_debug.o(.data) for uartDebugQueue
    sys_debug.o(i.SetWGAddr) refers to sys_debug.o(i.printf_str) for printf_str
    sys_debug.o(i.SetWGAddr) refers to queue.o(i.xQueueGenericReceive) for xQueueGenericReceive
    sys_debug.o(i.SetWGAddr) refers to strcmpv7m.o(.text) for strcmp
    sys_debug.o(i.SetWGAddr) refers to strlen.o(.text) for strlen
    sys_debug.o(i.SetWGAddr) refers to norflash.o(i.NorFlashWrite) for NorFlashWrite
    sys_debug.o(i.SetWGAddr) refers to sys_debug.o(.data) for uartDebugQueue
    sys_debug.o(i.TestModeMain) refers to sys_debug.o(i.printf_str) for printf_str
    sys_debug.o(i.TestModeMain) refers to queue.o(i.xQueueGenericReceive) for xQueueGenericReceive
    sys_debug.o(i.TestModeMain) refers to strcmpv7m.o(.text) for strcmp
    sys_debug.o(i.TestModeMain) refers to sys_debug.o(i.GatewaySetDebug) for GatewaySetDebug
    sys_debug.o(i.TestModeMain) refers to sys_debug.o(i.TaskPrintfDebug) for TaskPrintfDebug
    sys_debug.o(i.TestModeMain) refers to sys_debug.o(.data) for uartDebugQueue
    sys_debug.o(i.USART6_IRQHandler) refers to stm32f4xx_usart.o(i.USART_GetITStatus) for USART_GetITStatus
    sys_debug.o(i.USART6_IRQHandler) refers to stm32f4xx_usart.o(i.USART_ReceiveData) for USART_ReceiveData
    sys_debug.o(i.USART6_IRQHandler) refers to sys_debug.o(i.printf_buff) for printf_buff
    sys_debug.o(i.USART6_IRQHandler) refers to queue.o(i.xQueueGenericSendFromISR) for xQueueGenericSendFromISR
    sys_debug.o(i.USART6_IRQHandler) refers to rt_memclr.o(.text) for __aeabi_memclr
    sys_debug.o(i.USART6_IRQHandler) refers to sys_debug.o(.data) for TestModeFlag
    sys_debug.o(i.USART6_IRQHandler) refers to sys_debug.o(.bss) for DebugRxData
    sys_debug.o(i.UartDebugCreateTask) refers to queue.o(i.xQueueCreateMutex) for xQueueCreateMutex
    sys_debug.o(i.UartDebugCreateTask) refers to queue.o(i.xQueueGenericCreate) for xQueueGenericCreate
    sys_debug.o(i.UartDebugCreateTask) refers to tasks.o(i.xTaskGenericCreate) for xTaskGenericCreate
    sys_debug.o(i.UartDebugCreateTask) refers to sys_debug.o(.data) for printf_semaphore
    sys_debug.o(i.UartDebugCreateTask) refers to sys_debug.o(i.vUartDebugTask) for vUartDebugTask
    sys_debug.o(i.UartDebugInit) refers to uart_debug.o(i.UartDebugHardwareInit) for UartDebugHardwareInit
    sys_debug.o(i.UartDebugInit) refers to sys_debug.o(i.DebugRxDataInit) for DebugRxDataInit
    sys_debug.o(i.UartDebugInit) refers to sys_debug.o(i.UartDebugCreateTask) for UartDebugCreateTask
    sys_debug.o(i.printf_buff) refers to _printf_percent.o(.ARM.Collect$$_printf_percent$$00000000) for _printf_percent
    sys_debug.o(i.printf_buff) refers to _printf_s.o(.ARM.Collect$$_printf_percent$$00000014) for _printf_s
    sys_debug.o(i.printf_buff) refers to _printf_str.o(.text) for _printf_str
    sys_debug.o(i.printf_buff) refers to queue.o(i.xQueueGenericReceive) for xQueueGenericReceive
    sys_debug.o(i.printf_buff) refers to stm32f4xx_gpio.o(i.GPIO_SetBits) for GPIO_SetBits
    sys_debug.o(i.printf_buff) refers to noretval__2printf.o(.text) for __2printf
    sys_debug.o(i.printf_buff) refers to stm32f4xx_gpio.o(i.GPIO_ResetBits) for GPIO_ResetBits
    sys_debug.o(i.printf_buff) refers to queue.o(i.xQueueGenericSend) for xQueueGenericSend
    sys_debug.o(i.printf_buff) refers to sys_debug.o(.data) for printf_semaphore
    sys_debug.o(i.printf_str) refers to _printf_percent.o(.ARM.Collect$$_printf_percent$$00000000) for _printf_percent
    sys_debug.o(i.printf_str) refers to _printf_s.o(.ARM.Collect$$_printf_percent$$00000014) for _printf_s
    sys_debug.o(i.printf_str) refers to _printf_str.o(.text) for _printf_str
    sys_debug.o(i.printf_str) refers to queue.o(i.xQueueGenericReceive) for xQueueGenericReceive
    sys_debug.o(i.printf_str) refers to stm32f4xx_gpio.o(i.GPIO_SetBits) for GPIO_SetBits
    sys_debug.o(i.printf_str) refers to noretval__2printf.o(.text) for __2printf
    sys_debug.o(i.printf_str) refers to stm32f4xx_gpio.o(i.GPIO_ResetBits) for GPIO_ResetBits
    sys_debug.o(i.printf_str) refers to queue.o(i.xQueueGenericSend) for xQueueGenericSend
    sys_debug.o(i.printf_str) refers to sys_debug.o(.data) for printf_semaphore
    sys_debug.o(i.vUartDebugTask) refers to queue.o(i.xQueueGenericReceive) for xQueueGenericReceive
    sys_debug.o(i.vUartDebugTask) refers to strcmpv7m.o(.text) for strcmp
    sys_debug.o(i.vUartDebugTask) refers to tasks.o(i.vTaskDelay) for vTaskDelay
    sys_debug.o(i.vUartDebugTask) refers to sys_debug.o(i.TestModeMain) for TestModeMain
    sys_debug.o(i.vUartDebugTask) refers to sys_debug.o(.data) for uartDebugQueue
    sys_debug.o(.data) refers to sys_debug.o(.conststring) for .conststring
    gateway_protocol.o(i.HandleGatewayParam) refers to rt_memclr_w.o(.text) for __aeabi_memclr4
    gateway_protocol.o(i.HandleGatewayParam) refers to common.o(i.chr2hex) for chr2hex
    gateway_protocol.o(i.HandleGatewayParam) refers to gateway_protocol.o(i.Protocol_Response) for Protocol_Response
    gateway_protocol.o(i.HandleGatewayParam) refers to norflash.o(i.MemStorage_Convert) for MemStorage_Convert
    gateway_protocol.o(i.HandleGatewayParam) refers to norflash.o(i.NorFlashWrite) for NorFlashWrite
    gateway_protocol.o(i.HandleGatewayParam) refers to lat_longitude.o(i.rise_set) for rise_set
    gateway_protocol.o(i.HandleGatewayParam) refers to gateway_protocol.o(i.zigbee_config) for zigbee_config
    gateway_protocol.o(i.Protocol_Response) refers to rt_memclr_w.o(.text) for __aeabi_memclr4
    gateway_protocol.o(i.Protocol_Response) refers to norflash.o(i.NorFlashRead) for NorFlashRead
    gateway_protocol.o(i.Protocol_Response) refers to strncpy.o(.text) for strncpy
    gateway_protocol.o(i.Protocol_Response) refers to common.o(i.hex2chr) for hex2chr
    gateway_protocol.o(i.Protocol_Response) refers to common.o(i.BCC_CheckSum) for BCC_CheckSum
    gateway_protocol.o(i.Protocol_Response) refers to gsm.o(i.SimSendData) for SimSendData
    km_ctrl.o(i.KM_CtrlInit) refers to km_ctrl.o(i.KM_HardwareInit) for KM_HardwareInit
    km_ctrl.o(i.KM_CtrlInit) refers to queue.o(i.xQueueGenericCreate) for xQueueGenericCreate
    km_ctrl.o(i.KM_CtrlInit) refers to tasks.o(i.xTaskGenericCreate) for xTaskGenericCreate
    km_ctrl.o(i.KM_CtrlInit) refers to km_ctrl.o(.data) for KMCtrlQueue
    km_ctrl.o(i.KM_CtrlInit) refers to km_ctrl.o(i.KM_vCtrlTask) for KM_vCtrlTask
    km_ctrl.o(i.KM_HardwareInit) refers to stm32f4xx_gpio.o(i.GPIO_Init) for GPIO_Init
    km_ctrl.o(i.KM_vCtrlTask) refers to queue.o(i.xQueueGenericReceive) for xQueueGenericReceive
    km_ctrl.o(i.KM_vCtrlTask) refers to km_ctrl.o(.data) for KMCtrlQueue
    lat_longitude.o(i.GHA) refers to dmul.o(x$fpl$dmul) for __aeabi_dmul
    lat_longitude.o(i.GHA) refers to ddiv.o(x$fpl$ddiv) for __aeabi_ddiv
    lat_longitude.o(i.GHA) refers to sin.o(i.__hardfp_sin) for __hardfp_sin
    lat_longitude.o(i.GHA) refers to daddsub_clz.o(x$fpl$dsub) for __aeabi_dsub
    lat_longitude.o(i.GHA) refers to daddsub_clz.o(x$fpl$dadd) for __aeabi_dadd
    lat_longitude.o(i.G_sun) refers to dmul.o(x$fpl$dmul) for __aeabi_dmul
    lat_longitude.o(i.G_sun) refers to daddsub_clz.o(x$fpl$dadd) for __aeabi_dadd
    lat_longitude.o(i.L_sun) refers to dmul.o(x$fpl$dmul) for __aeabi_dmul
    lat_longitude.o(i.L_sun) refers to daddsub_clz.o(x$fpl$dadd) for __aeabi_dadd
    lat_longitude.o(i.UT_rise) refers to daddsub_clz.o(x$fpl$dadd) for __aeabi_dadd
    lat_longitude.o(i.UT_rise) refers to daddsub_clz.o(x$fpl$drsb) for __aeabi_drsub
    lat_longitude.o(i.UT_set) refers to daddsub_clz.o(x$fpl$dadd) for __aeabi_dadd
    lat_longitude.o(i.UT_set) refers to daddsub_clz.o(x$fpl$dsub) for __aeabi_dsub
    lat_longitude.o(i.UT_set) refers to daddsub_clz.o(x$fpl$drsb) for __aeabi_drsub
    lat_longitude.o(i.Zone) refers to drleqf.o(x$fpl$drleqf) for __aeabi_cdrcmple
    lat_longitude.o(i.Zone) refers to ddiv.o(x$fpl$ddiv) for __aeabi_ddiv
    lat_longitude.o(i.Zone) refers to dfix.o(x$fpl$dfix) for __aeabi_d2iz
    lat_longitude.o(i.days) refers to lat_longitude.o(i.leap_year) for leap_year
    lat_longitude.o(i.days) refers to lat_longitude.o(.data) for days_of_month_2
    lat_longitude.o(i.e) refers to dmul.o(x$fpl$dmul) for __aeabi_dmul
    lat_longitude.o(i.e) refers to ddiv.o(x$fpl$ddiv) for __aeabi_ddiv
    lat_longitude.o(i.e) refers to cos.o(i.__hardfp_cos) for __hardfp_cos
    lat_longitude.o(i.e) refers to sin.o(i.__hardfp_sin) for __hardfp_sin
    lat_longitude.o(i.e) refers to daddsub_clz.o(x$fpl$dsub) for __aeabi_dsub
    lat_longitude.o(i.e) refers to acos.o(i.__hardfp_acos) for __hardfp_acos
    lat_longitude.o(i.earth_tilt) refers to dmul.o(x$fpl$dmul) for __aeabi_dmul
    lat_longitude.o(i.earth_tilt) refers to daddsub_clz.o(x$fpl$drsb) for __aeabi_drsub
    lat_longitude.o(i.ecliptic_longitude) refers to dmul.o(x$fpl$dmul) for __aeabi_dmul
    lat_longitude.o(i.ecliptic_longitude) refers to ddiv.o(x$fpl$ddiv) for __aeabi_ddiv
    lat_longitude.o(i.ecliptic_longitude) refers to sin.o(i.__hardfp_sin) for __hardfp_sin
    lat_longitude.o(i.ecliptic_longitude) refers to daddsub_clz.o(x$fpl$dadd) for __aeabi_dadd
    lat_longitude.o(i.get_glat) refers to norflash.o(i.NorFlashRead) for NorFlashRead
    lat_longitude.o(i.get_glat) refers to common.o(i.chr2hex) for chr2hex
    lat_longitude.o(i.get_glat) refers to dflt_clz.o(x$fpl$dflt) for __aeabi_i2d
    lat_longitude.o(i.get_glat) refers to daddsub_clz.o(x$fpl$dsub) for __aeabi_dsub
    lat_longitude.o(i.get_glat) refers to ddiv.o(x$fpl$ddiv) for __aeabi_ddiv
    lat_longitude.o(i.get_glong) refers to norflash.o(i.NorFlashRead) for NorFlashRead
    lat_longitude.o(i.get_glong) refers to common.o(i.chr2hex) for chr2hex
    lat_longitude.o(i.get_glong) refers to dflt_clz.o(x$fpl$dflt) for __aeabi_i2d
    lat_longitude.o(i.get_glong) refers to daddsub_clz.o(x$fpl$dsub) for __aeabi_dsub
    lat_longitude.o(i.get_glong) refers to ddiv.o(x$fpl$ddiv) for __aeabi_ddiv
    lat_longitude.o(i.resule_convert) refers to lat_longitude.o(i.Zone) for Zone
    lat_longitude.o(i.resule_convert) refers to dflt_clz.o(x$fpl$dflt) for __aeabi_i2d
    lat_longitude.o(i.resule_convert) refers to ddiv.o(x$fpl$ddiv) for __aeabi_ddiv
    lat_longitude.o(i.resule_convert) refers to daddsub_clz.o(x$fpl$dadd) for __aeabi_dadd
    lat_longitude.o(i.resule_convert) refers to dfixu.o(x$fpl$dfixu) for __aeabi_d2uiz
    lat_longitude.o(i.resule_convert) refers to dfix.o(x$fpl$dfix) for __aeabi_d2iz
    lat_longitude.o(i.resule_convert) refers to daddsub_clz.o(x$fpl$dsub) for __aeabi_dsub
    lat_longitude.o(i.resule_convert) refers to dmul.o(x$fpl$dmul) for __aeabi_dmul
    lat_longitude.o(i.resule_convert) refers to lat_longitude.o(.bss) for sun_rise_set
    lat_longitude.o(i.result_rise) refers to drleqf.o(x$fpl$drleqf) for __aeabi_cdrcmple
    lat_longitude.o(i.result_rise) refers to daddsub_clz.o(x$fpl$dsub) for __aeabi_dsub
    lat_longitude.o(i.result_rise) refers to daddsub_clz.o(x$fpl$drsb) for __aeabi_drsub
    lat_longitude.o(i.result_rise) refers to lat_longitude.o(i.days) for days
    lat_longitude.o(i.result_rise) refers to lat_longitude.o(i.t_century) for t_century
    lat_longitude.o(i.result_rise) refers to lat_longitude.o(i.G_sun) for G_sun
    lat_longitude.o(i.result_rise) refers to lat_longitude.o(i.L_sun) for L_sun
    lat_longitude.o(i.result_rise) refers to lat_longitude.o(i.ecliptic_longitude) for ecliptic_longitude
    lat_longitude.o(i.result_rise) refers to lat_longitude.o(i.earth_tilt) for earth_tilt
    lat_longitude.o(i.result_rise) refers to lat_longitude.o(i.sun_deviation) for sun_deviation
    lat_longitude.o(i.result_rise) refers to lat_longitude.o(i.e) for e
    lat_longitude.o(i.result_rise) refers to lat_longitude.o(i.GHA) for GHA
    lat_longitude.o(i.result_rise) refers to lat_longitude.o(i.UT_rise) for UT_rise
    lat_longitude.o(i.result_rise) refers to lat_longitude.o(.data) for h
    lat_longitude.o(i.result_set) refers to drleqf.o(x$fpl$drleqf) for __aeabi_cdrcmple
    lat_longitude.o(i.result_set) refers to daddsub_clz.o(x$fpl$dsub) for __aeabi_dsub
    lat_longitude.o(i.result_set) refers to daddsub_clz.o(x$fpl$drsb) for __aeabi_drsub
    lat_longitude.o(i.result_set) refers to lat_longitude.o(i.days) for days
    lat_longitude.o(i.result_set) refers to lat_longitude.o(i.t_century) for t_century
    lat_longitude.o(i.result_set) refers to lat_longitude.o(i.G_sun) for G_sun
    lat_longitude.o(i.result_set) refers to lat_longitude.o(i.L_sun) for L_sun
    lat_longitude.o(i.result_set) refers to lat_longitude.o(i.ecliptic_longitude) for ecliptic_longitude
    lat_longitude.o(i.result_set) refers to lat_longitude.o(i.earth_tilt) for earth_tilt
    lat_longitude.o(i.result_set) refers to lat_longitude.o(i.sun_deviation) for sun_deviation
    lat_longitude.o(i.result_set) refers to lat_longitude.o(i.e) for e
    lat_longitude.o(i.result_set) refers to lat_longitude.o(i.GHA) for GHA
    lat_longitude.o(i.result_set) refers to lat_longitude.o(i.UT_set) for UT_set
    lat_longitude.o(i.result_set) refers to lat_longitude.o(.data) for h
    lat_longitude.o(i.rise_set) refers to rtc.o(i.ReadRTC_Time) for ReadRTC_Time
    lat_longitude.o(i.rise_set) refers to lat_longitude.o(i.get_glat) for get_glat
    lat_longitude.o(i.rise_set) refers to lat_longitude.o(i.get_glong) for get_glong
    lat_longitude.o(i.rise_set) refers to lat_longitude.o(i.days) for days
    lat_longitude.o(i.rise_set) refers to lat_longitude.o(i.t_century) for t_century
    lat_longitude.o(i.rise_set) refers to lat_longitude.o(i.G_sun) for G_sun
    lat_longitude.o(i.rise_set) refers to lat_longitude.o(i.L_sun) for L_sun
    lat_longitude.o(i.rise_set) refers to lat_longitude.o(i.ecliptic_longitude) for ecliptic_longitude
    lat_longitude.o(i.rise_set) refers to lat_longitude.o(i.GHA) for GHA
    lat_longitude.o(i.rise_set) refers to lat_longitude.o(i.earth_tilt) for earth_tilt
    lat_longitude.o(i.rise_set) refers to lat_longitude.o(i.sun_deviation) for sun_deviation
    lat_longitude.o(i.rise_set) refers to lat_longitude.o(i.e) for e
    lat_longitude.o(i.rise_set) refers to lat_longitude.o(i.UT_rise) for UT_rise
    lat_longitude.o(i.rise_set) refers to lat_longitude.o(i.result_rise) for result_rise
    lat_longitude.o(i.rise_set) refers to lat_longitude.o(i.UT_set) for UT_set
    lat_longitude.o(i.rise_set) refers to lat_longitude.o(i.result_set) for result_set
    lat_longitude.o(i.rise_set) refers to lat_longitude.o(i.resule_convert) for resule_convert
    lat_longitude.o(i.rise_set) refers to rtc.o(.bss) for time
    lat_longitude.o(i.rise_set) refers to lat_longitude.o(.data) for h
    lat_longitude.o(i.sun_deviation) refers to dmul.o(x$fpl$dmul) for __aeabi_dmul
    lat_longitude.o(i.sun_deviation) refers to sin.o(i.__hardfp_sin) for __hardfp_sin
    lat_longitude.o(i.sun_deviation) refers to asin.o(i.__hardfp_asin) for __hardfp_asin
    lat_longitude.o(i.t_century) refers to ddiv.o(x$fpl$ddiv) for __aeabi_ddiv
    lat_longitude.o(i.t_century) refers to dflt_clz.o(x$fpl$dflt) for __aeabi_i2d
    lat_longitude.o(i.t_century) refers to daddsub_clz.o(x$fpl$dadd) for __aeabi_dadd
    port.o(.emb_text) refers to tasks.o(i.vTaskSwitchContext) for vTaskSwitchContext
    port.o(.emb_text) refers to tasks.o(.data) for pxCurrentTCB
    port.o(i.pxPortInitialiseStack) refers to port.o(i.prvTaskExitError) for prvTaskExitError
    port.o(i.vPortEnterCritical) refers to port.o(.data) for uxCriticalNesting
    port.o(i.vPortExitCritical) refers to port.o(.data) for uxCriticalNesting
    port.o(i.xPortStartScheduler) refers to port.o(i.vPortSetupTimerInterrupt) for vPortSetupTimerInterrupt
    port.o(i.xPortStartScheduler) refers to port.o(.emb_text) for __asm___6_port_c_39a90d8d__prvEnableVFP
    port.o(i.xPortStartScheduler) refers to port.o(.data) for uxCriticalNesting
    port.o(i.xPortSysTickHandler) refers to tasks.o(i.xTaskIncrementTick) for xTaskIncrementTick
    heap_2.o(i.prvHeapInit) refers to heap_2.o(.bss) for ucHeap
    heap_2.o(i.prvHeapInit) refers to heap_2.o(.data) for xStart
    heap_2.o(i.pvPortMalloc) refers to tasks.o(i.vTaskSuspendAll) for vTaskSuspendAll
    heap_2.o(i.pvPortMalloc) refers to heap_2.o(i.prvHeapInit) for prvHeapInit
    heap_2.o(i.pvPortMalloc) refers to tasks.o(i.xTaskResumeAll) for xTaskResumeAll
    heap_2.o(i.pvPortMalloc) refers to heap_2.o(.data) for xHeapHasBeenInitialised
    heap_2.o(i.vPortFree) refers to tasks.o(i.vTaskSuspendAll) for vTaskSuspendAll
    heap_2.o(i.vPortFree) refers to tasks.o(i.xTaskResumeAll) for xTaskResumeAll
    heap_2.o(i.vPortFree) refers to heap_2.o(.data) for xStart
    heap_2.o(i.xPortGetFreeHeapSize) refers to heap_2.o(.data) for xFreeBytesRemaining
    queue.o(i.prvCopyDataFromQueue) refers to rt_memcpy_v6.o(.text) for __aeabi_memcpy
    queue.o(i.prvCopyDataToQueue) refers to tasks.o(i.xTaskPriorityDisinherit) for xTaskPriorityDisinherit
    queue.o(i.prvCopyDataToQueue) refers to rt_memcpy_v6.o(.text) for __aeabi_memcpy
    queue.o(i.prvIsQueueEmpty) refers to port.o(i.vPortEnterCritical) for vPortEnterCritical
    queue.o(i.prvIsQueueEmpty) refers to port.o(i.vPortExitCritical) for vPortExitCritical
    queue.o(i.prvIsQueueFull) refers to port.o(i.vPortEnterCritical) for vPortEnterCritical
    queue.o(i.prvIsQueueFull) refers to port.o(i.vPortExitCritical) for vPortExitCritical
    queue.o(i.prvUnlockQueue) refers to port.o(i.vPortEnterCritical) for vPortEnterCritical
    queue.o(i.prvUnlockQueue) refers to tasks.o(i.xTaskRemoveFromEventList) for xTaskRemoveFromEventList
    queue.o(i.prvUnlockQueue) refers to tasks.o(i.vTaskMissedYield) for vTaskMissedYield
    queue.o(i.prvUnlockQueue) refers to port.o(i.vPortExitCritical) for vPortExitCritical
    queue.o(i.uxQueueMessagesWaiting) refers to port.o(i.vPortEnterCritical) for vPortEnterCritical
    queue.o(i.uxQueueMessagesWaiting) refers to port.o(i.vPortExitCritical) for vPortExitCritical
    queue.o(i.uxQueueSpacesAvailable) refers to port.o(i.vPortEnterCritical) for vPortEnterCritical
    queue.o(i.uxQueueSpacesAvailable) refers to port.o(i.vPortExitCritical) for vPortExitCritical
    queue.o(i.vQueueDelete) refers to heap_2.o(i.vPortFree) for vPortFree
    queue.o(i.xQueueCreateMutex) refers to heap_2.o(i.pvPortMalloc) for pvPortMalloc
    queue.o(i.xQueueCreateMutex) refers to list.o(i.vListInitialise) for vListInitialise
    queue.o(i.xQueueCreateMutex) refers to queue.o(i.xQueueGenericSend) for xQueueGenericSend
    queue.o(i.xQueueGenericCreate) refers to heap_2.o(i.pvPortMalloc) for pvPortMalloc
    queue.o(i.xQueueGenericCreate) refers to queue.o(i.xQueueGenericReset) for xQueueGenericReset
    queue.o(i.xQueueGenericReceive) refers to port.o(i.vPortEnterCritical) for vPortEnterCritical
    queue.o(i.xQueueGenericReceive) refers to queue.o(i.prvCopyDataFromQueue) for prvCopyDataFromQueue
    queue.o(i.xQueueGenericReceive) refers to tasks.o(i.pvTaskIncrementMutexHeldCount) for pvTaskIncrementMutexHeldCount
    queue.o(i.xQueueGenericReceive) refers to tasks.o(i.xTaskRemoveFromEventList) for xTaskRemoveFromEventList
    queue.o(i.xQueueGenericReceive) refers to port.o(i.vPortExitCritical) for vPortExitCritical
    queue.o(i.xQueueGenericReceive) refers to tasks.o(i.vTaskSetTimeOutState) for vTaskSetTimeOutState
    queue.o(i.xQueueGenericReceive) refers to tasks.o(i.vTaskSuspendAll) for vTaskSuspendAll
    queue.o(i.xQueueGenericReceive) refers to tasks.o(i.xTaskCheckForTimeOut) for xTaskCheckForTimeOut
    queue.o(i.xQueueGenericReceive) refers to queue.o(i.prvIsQueueEmpty) for prvIsQueueEmpty
    queue.o(i.xQueueGenericReceive) refers to tasks.o(i.vTaskPriorityInherit) for vTaskPriorityInherit
    queue.o(i.xQueueGenericReceive) refers to tasks.o(i.vTaskPlaceOnEventList) for vTaskPlaceOnEventList
    queue.o(i.xQueueGenericReceive) refers to queue.o(i.prvUnlockQueue) for prvUnlockQueue
    queue.o(i.xQueueGenericReceive) refers to tasks.o(i.xTaskResumeAll) for xTaskResumeAll
    queue.o(i.xQueueGenericReset) refers to port.o(i.vPortEnterCritical) for vPortEnterCritical
    queue.o(i.xQueueGenericReset) refers to tasks.o(i.xTaskRemoveFromEventList) for xTaskRemoveFromEventList
    queue.o(i.xQueueGenericReset) refers to list.o(i.vListInitialise) for vListInitialise
    queue.o(i.xQueueGenericReset) refers to port.o(i.vPortExitCritical) for vPortExitCritical
    queue.o(i.xQueueGenericSend) refers to port.o(i.vPortEnterCritical) for vPortEnterCritical
    queue.o(i.xQueueGenericSend) refers to queue.o(i.prvCopyDataToQueue) for prvCopyDataToQueue
    queue.o(i.xQueueGenericSend) refers to tasks.o(i.xTaskRemoveFromEventList) for xTaskRemoveFromEventList
    queue.o(i.xQueueGenericSend) refers to port.o(i.vPortExitCritical) for vPortExitCritical
    queue.o(i.xQueueGenericSend) refers to tasks.o(i.vTaskSetTimeOutState) for vTaskSetTimeOutState
    queue.o(i.xQueueGenericSend) refers to tasks.o(i.vTaskSuspendAll) for vTaskSuspendAll
    queue.o(i.xQueueGenericSend) refers to tasks.o(i.xTaskCheckForTimeOut) for xTaskCheckForTimeOut
    queue.o(i.xQueueGenericSend) refers to queue.o(i.prvIsQueueFull) for prvIsQueueFull
    queue.o(i.xQueueGenericSend) refers to tasks.o(i.vTaskPlaceOnEventList) for vTaskPlaceOnEventList
    queue.o(i.xQueueGenericSend) refers to queue.o(i.prvUnlockQueue) for prvUnlockQueue
    queue.o(i.xQueueGenericSend) refers to tasks.o(i.xTaskResumeAll) for xTaskResumeAll
    queue.o(i.xQueueGenericSendFromISR) refers to queue.o(i.prvCopyDataToQueue) for prvCopyDataToQueue
    queue.o(i.xQueueGenericSendFromISR) refers to tasks.o(i.xTaskRemoveFromEventList) for xTaskRemoveFromEventList
    queue.o(i.xQueueGiveFromISR) refers to tasks.o(i.xTaskRemoveFromEventList) for xTaskRemoveFromEventList
    queue.o(i.xQueuePeekFromISR) refers to queue.o(i.prvCopyDataFromQueue) for prvCopyDataFromQueue
    queue.o(i.xQueueReceiveFromISR) refers to queue.o(i.prvCopyDataFromQueue) for prvCopyDataFromQueue
    queue.o(i.xQueueReceiveFromISR) refers to tasks.o(i.xTaskRemoveFromEventList) for xTaskRemoveFromEventList
    tasks.o(i.pcTaskGetTaskName) refers to tasks.o(.data) for pxCurrentTCB
    tasks.o(i.prvAddCurrentTaskToDelayedList) refers to list.o(i.vListInsert) for vListInsert
    tasks.o(i.prvAddCurrentTaskToDelayedList) refers to tasks.o(.data) for pxCurrentTCB
    tasks.o(i.prvAllocateTCBAndStack) refers to heap_2.o(i.pvPortMalloc) for pvPortMalloc
    tasks.o(i.prvAllocateTCBAndStack) refers to heap_2.o(i.vPortFree) for vPortFree
    tasks.o(i.prvAllocateTCBAndStack) refers to aeabi_memset.o(.text) for __aeabi_memset
    tasks.o(i.prvCheckTasksWaitingTermination) refers to tasks.o(i.vTaskSuspendAll) for vTaskSuspendAll
    tasks.o(i.prvCheckTasksWaitingTermination) refers to tasks.o(i.xTaskResumeAll) for xTaskResumeAll
    tasks.o(i.prvCheckTasksWaitingTermination) refers to port.o(i.vPortEnterCritical) for vPortEnterCritical
    tasks.o(i.prvCheckTasksWaitingTermination) refers to list.o(i.uxListRemove) for uxListRemove
    tasks.o(i.prvCheckTasksWaitingTermination) refers to port.o(i.vPortExitCritical) for vPortExitCritical
    tasks.o(i.prvCheckTasksWaitingTermination) refers to tasks.o(i.prvDeleteTCB) for prvDeleteTCB
    tasks.o(i.prvCheckTasksWaitingTermination) refers to tasks.o(.bss) for xTasksWaitingTermination
    tasks.o(i.prvCheckTasksWaitingTermination) refers to tasks.o(.data) for uxCurrentNumberOfTasks
    tasks.o(i.prvDeleteTCB) refers to heap_2.o(i.vPortFree) for vPortFree
    tasks.o(i.prvIdleTask) refers to tasks.o(i.prvCheckTasksWaitingTermination) for prvCheckTasksWaitingTermination
    tasks.o(i.prvIdleTask) refers to tasks.o(.bss) for pxReadyTasksLists
    tasks.o(i.prvInitialiseTCBVariables) refers to list.o(i.vListInitialiseItem) for vListInitialiseItem
    tasks.o(i.prvInitialiseTaskLists) refers to list.o(i.vListInitialise) for vListInitialise
    tasks.o(i.prvInitialiseTaskLists) refers to tasks.o(.bss) for pxReadyTasksLists
    tasks.o(i.prvInitialiseTaskLists) refers to tasks.o(.data) for pxDelayedTaskList
    tasks.o(i.prvResetNextTaskUnblockTime) refers to tasks.o(.data) for pxDelayedTaskList
    tasks.o(i.prvTaskIsTaskSuspended) refers to tasks.o(.bss) for xSuspendedTaskList
    tasks.o(i.pvTaskIncrementMutexHeldCount) refers to tasks.o(.data) for pxCurrentTCB
    tasks.o(i.ulTaskNotifyTake) refers to port.o(i.vPortEnterCritical) for vPortEnterCritical
    tasks.o(i.ulTaskNotifyTake) refers to list.o(i.uxListRemove) for uxListRemove
    tasks.o(i.ulTaskNotifyTake) refers to list.o(i.vListInsertEnd) for vListInsertEnd
    tasks.o(i.ulTaskNotifyTake) refers to tasks.o(i.prvAddCurrentTaskToDelayedList) for prvAddCurrentTaskToDelayedList
    tasks.o(i.ulTaskNotifyTake) refers to port.o(i.vPortExitCritical) for vPortExitCritical
    tasks.o(i.ulTaskNotifyTake) refers to tasks.o(.data) for pxCurrentTCB
    tasks.o(i.ulTaskNotifyTake) refers to tasks.o(.bss) for xSuspendedTaskList
    tasks.o(i.uxTaskGetNumberOfTasks) refers to tasks.o(.data) for uxCurrentNumberOfTasks
    tasks.o(i.uxTaskPriorityGet) refers to port.o(i.vPortEnterCritical) for vPortEnterCritical
    tasks.o(i.uxTaskPriorityGet) refers to port.o(i.vPortExitCritical) for vPortExitCritical
    tasks.o(i.uxTaskPriorityGet) refers to tasks.o(.data) for pxCurrentTCB
    tasks.o(i.uxTaskPriorityGetFromISR) refers to tasks.o(.data) for pxCurrentTCB
    tasks.o(i.uxTaskResetEventItemValue) refers to tasks.o(.data) for pxCurrentTCB
    tasks.o(i.vTaskDelay) refers to tasks.o(i.vTaskSuspendAll) for vTaskSuspendAll
    tasks.o(i.vTaskDelay) refers to list.o(i.uxListRemove) for uxListRemove
    tasks.o(i.vTaskDelay) refers to tasks.o(i.prvAddCurrentTaskToDelayedList) for prvAddCurrentTaskToDelayedList
    tasks.o(i.vTaskDelay) refers to tasks.o(i.xTaskResumeAll) for xTaskResumeAll
    tasks.o(i.vTaskDelay) refers to tasks.o(.data) for xTickCount
    tasks.o(i.vTaskDelayUntil) refers to tasks.o(i.vTaskSuspendAll) for vTaskSuspendAll
    tasks.o(i.vTaskDelayUntil) refers to list.o(i.uxListRemove) for uxListRemove
    tasks.o(i.vTaskDelayUntil) refers to tasks.o(i.prvAddCurrentTaskToDelayedList) for prvAddCurrentTaskToDelayedList
    tasks.o(i.vTaskDelayUntil) refers to tasks.o(i.xTaskResumeAll) for xTaskResumeAll
    tasks.o(i.vTaskDelayUntil) refers to tasks.o(.data) for xTickCount
    tasks.o(i.vTaskDelete) refers to port.o(i.vPortEnterCritical) for vPortEnterCritical
    tasks.o(i.vTaskDelete) refers to list.o(i.uxListRemove) for uxListRemove
    tasks.o(i.vTaskDelete) refers to list.o(i.vListInsertEnd) for vListInsertEnd
    tasks.o(i.vTaskDelete) refers to port.o(i.vPortExitCritical) for vPortExitCritical
    tasks.o(i.vTaskDelete) refers to tasks.o(i.prvResetNextTaskUnblockTime) for prvResetNextTaskUnblockTime
    tasks.o(i.vTaskDelete) refers to tasks.o(.data) for pxCurrentTCB
    tasks.o(i.vTaskDelete) refers to tasks.o(.bss) for pxReadyTasksLists
    tasks.o(i.vTaskEndScheduler) refers to port.o(i.vPortEndScheduler) for vPortEndScheduler
    tasks.o(i.vTaskEndScheduler) refers to tasks.o(.data) for xSchedulerRunning
    tasks.o(i.vTaskMissedYield) refers to tasks.o(.data) for xYieldPending
    tasks.o(i.vTaskNotifyGiveFromISR) refers to list.o(i.uxListRemove) for uxListRemove
    tasks.o(i.vTaskNotifyGiveFromISR) refers to list.o(i.vListInsertEnd) for vListInsertEnd
    tasks.o(i.vTaskNotifyGiveFromISR) refers to tasks.o(.data) for uxSchedulerSuspended
    tasks.o(i.vTaskNotifyGiveFromISR) refers to tasks.o(.bss) for pxReadyTasksLists
    tasks.o(i.vTaskPlaceOnEventList) refers to list.o(i.vListInsert) for vListInsert
    tasks.o(i.vTaskPlaceOnEventList) refers to list.o(i.uxListRemove) for uxListRemove
    tasks.o(i.vTaskPlaceOnEventList) refers to list.o(i.vListInsertEnd) for vListInsertEnd
    tasks.o(i.vTaskPlaceOnEventList) refers to tasks.o(i.prvAddCurrentTaskToDelayedList) for prvAddCurrentTaskToDelayedList
    tasks.o(i.vTaskPlaceOnEventList) refers to tasks.o(.data) for pxCurrentTCB
    tasks.o(i.vTaskPlaceOnEventList) refers to tasks.o(.bss) for xSuspendedTaskList
    tasks.o(i.vTaskPlaceOnUnorderedEventList) refers to list.o(i.vListInsertEnd) for vListInsertEnd
    tasks.o(i.vTaskPlaceOnUnorderedEventList) refers to list.o(i.uxListRemove) for uxListRemove
    tasks.o(i.vTaskPlaceOnUnorderedEventList) refers to tasks.o(i.prvAddCurrentTaskToDelayedList) for prvAddCurrentTaskToDelayedList
    tasks.o(i.vTaskPlaceOnUnorderedEventList) refers to tasks.o(.data) for pxCurrentTCB
    tasks.o(i.vTaskPlaceOnUnorderedEventList) refers to tasks.o(.bss) for xSuspendedTaskList
    tasks.o(i.vTaskPriorityInherit) refers to list.o(i.uxListRemove) for uxListRemove
    tasks.o(i.vTaskPriorityInherit) refers to list.o(i.vListInsertEnd) for vListInsertEnd
    tasks.o(i.vTaskPriorityInherit) refers to tasks.o(.data) for pxCurrentTCB
    tasks.o(i.vTaskPriorityInherit) refers to tasks.o(.bss) for pxReadyTasksLists
    tasks.o(i.vTaskPrioritySet) refers to port.o(i.vPortEnterCritical) for vPortEnterCritical
    tasks.o(i.vTaskPrioritySet) refers to list.o(i.uxListRemove) for uxListRemove
    tasks.o(i.vTaskPrioritySet) refers to list.o(i.vListInsertEnd) for vListInsertEnd
    tasks.o(i.vTaskPrioritySet) refers to port.o(i.vPortExitCritical) for vPortExitCritical
    tasks.o(i.vTaskPrioritySet) refers to tasks.o(.data) for pxCurrentTCB
    tasks.o(i.vTaskPrioritySet) refers to tasks.o(.bss) for pxReadyTasksLists
    tasks.o(i.vTaskResume) refers to port.o(i.vPortEnterCritical) for vPortEnterCritical
    tasks.o(i.vTaskResume) refers to tasks.o(i.prvTaskIsTaskSuspended) for prvTaskIsTaskSuspended
    tasks.o(i.vTaskResume) refers to list.o(i.uxListRemove) for uxListRemove
    tasks.o(i.vTaskResume) refers to list.o(i.vListInsertEnd) for vListInsertEnd
    tasks.o(i.vTaskResume) refers to port.o(i.vPortExitCritical) for vPortExitCritical
    tasks.o(i.vTaskResume) refers to tasks.o(.data) for pxCurrentTCB
    tasks.o(i.vTaskResume) refers to tasks.o(.bss) for pxReadyTasksLists
    tasks.o(i.vTaskSetTimeOutState) refers to tasks.o(.data) for xNumOfOverflows
    tasks.o(i.vTaskStartScheduler) refers to tasks.o(i.xTaskGenericCreate) for xTaskGenericCreate
    tasks.o(i.vTaskStartScheduler) refers to port.o(i.xPortStartScheduler) for xPortStartScheduler
    tasks.o(i.vTaskStartScheduler) refers to tasks.o(i.prvIdleTask) for prvIdleTask
    tasks.o(i.vTaskStartScheduler) refers to tasks.o(.data) for xNextTaskUnblockTime
    tasks.o(i.vTaskSuspend) refers to port.o(i.vPortEnterCritical) for vPortEnterCritical
    tasks.o(i.vTaskSuspend) refers to list.o(i.uxListRemove) for uxListRemove
    tasks.o(i.vTaskSuspend) refers to list.o(i.vListInsertEnd) for vListInsertEnd
    tasks.o(i.vTaskSuspend) refers to port.o(i.vPortExitCritical) for vPortExitCritical
    tasks.o(i.vTaskSuspend) refers to tasks.o(i.vTaskSwitchContext) for vTaskSwitchContext
    tasks.o(i.vTaskSuspend) refers to tasks.o(i.prvResetNextTaskUnblockTime) for prvResetNextTaskUnblockTime
    tasks.o(i.vTaskSuspend) refers to tasks.o(.data) for pxCurrentTCB
    tasks.o(i.vTaskSuspend) refers to tasks.o(.bss) for pxReadyTasksLists
    tasks.o(i.vTaskSuspendAll) refers to tasks.o(.data) for uxSchedulerSuspended
    tasks.o(i.vTaskSwitchContext) refers to freertos_hook.o(i.vApplicationStackOverflowHook) for vApplicationStackOverflowHook
    tasks.o(i.vTaskSwitchContext) refers to tasks.o(.data) for uxSchedulerSuspended
    tasks.o(i.vTaskSwitchContext) refers to tasks.o(.bss) for pxReadyTasksLists
    tasks.o(i.xTaskCheckForTimeOut) refers to port.o(i.vPortEnterCritical) for vPortEnterCritical
    tasks.o(i.xTaskCheckForTimeOut) refers to tasks.o(i.vTaskSetTimeOutState) for vTaskSetTimeOutState
    tasks.o(i.xTaskCheckForTimeOut) refers to port.o(i.vPortExitCritical) for vPortExitCritical
    tasks.o(i.xTaskCheckForTimeOut) refers to tasks.o(.data) for xTickCount
    tasks.o(i.xTaskGenericCreate) refers to tasks.o(i.prvAllocateTCBAndStack) for prvAllocateTCBAndStack
    tasks.o(i.xTaskGenericCreate) refers to tasks.o(i.prvInitialiseTCBVariables) for prvInitialiseTCBVariables
    tasks.o(i.xTaskGenericCreate) refers to port.o(i.pxPortInitialiseStack) for pxPortInitialiseStack
    tasks.o(i.xTaskGenericCreate) refers to port.o(i.vPortEnterCritical) for vPortEnterCritical
    tasks.o(i.xTaskGenericCreate) refers to tasks.o(i.prvInitialiseTaskLists) for prvInitialiseTaskLists
    tasks.o(i.xTaskGenericCreate) refers to list.o(i.vListInsertEnd) for vListInsertEnd
    tasks.o(i.xTaskGenericCreate) refers to port.o(i.vPortExitCritical) for vPortExitCritical
    tasks.o(i.xTaskGenericCreate) refers to tasks.o(.data) for uxCurrentNumberOfTasks
    tasks.o(i.xTaskGenericCreate) refers to tasks.o(.bss) for pxReadyTasksLists
    tasks.o(i.xTaskGenericNotify) refers to port.o(i.vPortEnterCritical) for vPortEnterCritical
    tasks.o(i.xTaskGenericNotify) refers to list.o(i.uxListRemove) for uxListRemove
    tasks.o(i.xTaskGenericNotify) refers to list.o(i.vListInsertEnd) for vListInsertEnd
    tasks.o(i.xTaskGenericNotify) refers to port.o(i.vPortExitCritical) for vPortExitCritical
    tasks.o(i.xTaskGenericNotify) refers to tasks.o(.data) for uxTopReadyPriority
    tasks.o(i.xTaskGenericNotify) refers to tasks.o(.bss) for pxReadyTasksLists
    tasks.o(i.xTaskGenericNotifyFromISR) refers to list.o(i.uxListRemove) for uxListRemove
    tasks.o(i.xTaskGenericNotifyFromISR) refers to list.o(i.vListInsertEnd) for vListInsertEnd
    tasks.o(i.xTaskGenericNotifyFromISR) refers to tasks.o(.data) for uxSchedulerSuspended
    tasks.o(i.xTaskGenericNotifyFromISR) refers to tasks.o(.bss) for pxReadyTasksLists
    tasks.o(i.xTaskGetCurrentTaskHandle) refers to tasks.o(.data) for pxCurrentTCB
    tasks.o(i.xTaskGetTickCount) refers to tasks.o(.data) for xTickCount
    tasks.o(i.xTaskGetTickCountFromISR) refers to tasks.o(.data) for xTickCount
    tasks.o(i.xTaskIncrementTick) refers to tasks.o(i.prvResetNextTaskUnblockTime) for prvResetNextTaskUnblockTime
    tasks.o(i.xTaskIncrementTick) refers to list.o(i.uxListRemove) for uxListRemove
    tasks.o(i.xTaskIncrementTick) refers to list.o(i.vListInsertEnd) for vListInsertEnd
    tasks.o(i.xTaskIncrementTick) refers to freertos_hook.o(i.vApplicationTickHook) for vApplicationTickHook
    tasks.o(i.xTaskIncrementTick) refers to tasks.o(.data) for uxSchedulerSuspended
    tasks.o(i.xTaskIncrementTick) refers to tasks.o(.bss) for pxReadyTasksLists
    tasks.o(i.xTaskNotifyStateClear) refers to port.o(i.vPortEnterCritical) for vPortEnterCritical
    tasks.o(i.xTaskNotifyStateClear) refers to port.o(i.vPortExitCritical) for vPortExitCritical
    tasks.o(i.xTaskNotifyStateClear) refers to tasks.o(.data) for pxCurrentTCB
    tasks.o(i.xTaskNotifyWait) refers to port.o(i.vPortEnterCritical) for vPortEnterCritical
    tasks.o(i.xTaskNotifyWait) refers to list.o(i.uxListRemove) for uxListRemove
    tasks.o(i.xTaskNotifyWait) refers to list.o(i.vListInsertEnd) for vListInsertEnd
    tasks.o(i.xTaskNotifyWait) refers to tasks.o(i.prvAddCurrentTaskToDelayedList) for prvAddCurrentTaskToDelayedList
    tasks.o(i.xTaskNotifyWait) refers to port.o(i.vPortExitCritical) for vPortExitCritical
    tasks.o(i.xTaskNotifyWait) refers to tasks.o(.data) for pxCurrentTCB
    tasks.o(i.xTaskNotifyWait) refers to tasks.o(.bss) for xSuspendedTaskList
    tasks.o(i.xTaskPriorityDisinherit) refers to list.o(i.uxListRemove) for uxListRemove
    tasks.o(i.xTaskPriorityDisinherit) refers to list.o(i.vListInsertEnd) for vListInsertEnd
    tasks.o(i.xTaskPriorityDisinherit) refers to tasks.o(.bss) for pxReadyTasksLists
    tasks.o(i.xTaskPriorityDisinherit) refers to tasks.o(.data) for uxTopReadyPriority
    tasks.o(i.xTaskRemoveFromEventList) refers to list.o(i.uxListRemove) for uxListRemove
    tasks.o(i.xTaskRemoveFromEventList) refers to list.o(i.vListInsertEnd) for vListInsertEnd
    tasks.o(i.xTaskRemoveFromEventList) refers to tasks.o(.data) for uxSchedulerSuspended
    tasks.o(i.xTaskRemoveFromEventList) refers to tasks.o(.bss) for pxReadyTasksLists
    tasks.o(i.xTaskRemoveFromUnorderedEventList) refers to list.o(i.uxListRemove) for uxListRemove
    tasks.o(i.xTaskRemoveFromUnorderedEventList) refers to list.o(i.vListInsertEnd) for vListInsertEnd
    tasks.o(i.xTaskRemoveFromUnorderedEventList) refers to tasks.o(.data) for uxTopReadyPriority
    tasks.o(i.xTaskRemoveFromUnorderedEventList) refers to tasks.o(.bss) for pxReadyTasksLists
    tasks.o(i.xTaskResumeAll) refers to port.o(i.vPortEnterCritical) for vPortEnterCritical
    tasks.o(i.xTaskResumeAll) refers to list.o(i.uxListRemove) for uxListRemove
    tasks.o(i.xTaskResumeAll) refers to list.o(i.vListInsertEnd) for vListInsertEnd
    tasks.o(i.xTaskResumeAll) refers to tasks.o(i.xTaskIncrementTick) for xTaskIncrementTick
    tasks.o(i.xTaskResumeAll) refers to port.o(i.vPortExitCritical) for vPortExitCritical
    tasks.o(i.xTaskResumeAll) refers to tasks.o(.data) for uxSchedulerSuspended
    tasks.o(i.xTaskResumeAll) refers to tasks.o(.bss) for xPendingReadyList
    tasks.o(i.xTaskResumeFromISR) refers to tasks.o(i.prvTaskIsTaskSuspended) for prvTaskIsTaskSuspended
    tasks.o(i.xTaskResumeFromISR) refers to list.o(i.uxListRemove) for uxListRemove
    tasks.o(i.xTaskResumeFromISR) refers to list.o(i.vListInsertEnd) for vListInsertEnd
    tasks.o(i.xTaskResumeFromISR) refers to tasks.o(.data) for uxSchedulerSuspended
    tasks.o(i.xTaskResumeFromISR) refers to tasks.o(.bss) for pxReadyTasksLists
    rtc.o(i.NetTimeCentury) refers to _scanf_str.o(.text) for _scanf_string
    rtc.o(i.NetTimeCentury) refers to _scanf_int.o(.text) for _scanf_int
    rtc.o(i.NetTimeCentury) refers to __0sscanf.o(.text) for __0sscanf
    rtc.o(i.NetTimeCentury) refers to common.o(i.chr2hex) for chr2hex
    rtc.o(i.NetTimeCentury) refers to common.o(i.Bcd2ToByte) for Bcd2ToByte
    rtc.o(i.NetTimeCentury) refers to stm32f4xx_rtc.o(i.RTC_ReadBackupRegister) for RTC_ReadBackupRegister
    rtc.o(i.NetTimeCentury) refers to stm32f4xx_pwr.o(i.PWR_BackupAccessCmd) for PWR_BackupAccessCmd
    rtc.o(i.NetTimeCentury) refers to stm32f4xx_rtc.o(i.RTC_WriteBackupRegister) for RTC_WriteBackupRegister
    rtc.o(i.ReadRTC_Time) refers to queue.o(i.xQueueGenericReceive) for xQueueGenericReceive
    rtc.o(i.ReadRTC_Time) refers to stm32f4xx_rtc.o(i.RTC_GetDate) for RTC_GetDate
    rtc.o(i.ReadRTC_Time) refers to stm32f4xx_rtc.o(i.RTC_GetTime) for RTC_GetTime
    rtc.o(i.ReadRTC_Time) refers to stm32f4xx_rtc.o(i.RTC_ReadBackupRegister) for RTC_ReadBackupRegister
    rtc.o(i.ReadRTC_Time) refers to queue.o(i.xQueueGenericSend) for xQueueGenericSend
    rtc.o(i.ReadRTC_Time) refers to rtc.o(.data) for RTC_SystemRunningSemaphore
    rtc.o(i.RtcInit) refers to queue.o(i.xQueueCreateMutex) for xQueueCreateMutex
    rtc.o(i.RtcInit) refers to stm32f4xx_rcc.o(i.RCC_APB1PeriphClockCmd) for RCC_APB1PeriphClockCmd
    rtc.o(i.RtcInit) refers to stm32f4xx_pwr.o(i.PWR_BackupAccessCmd) for PWR_BackupAccessCmd
    rtc.o(i.RtcInit) refers to stm32f4xx_rtc.o(i.RTC_ReadBackupRegister) for RTC_ReadBackupRegister
    rtc.o(i.RtcInit) refers to stm32f4xx_rcc.o(i.RCC_LSEConfig) for RCC_LSEConfig
    rtc.o(i.RtcInit) refers to stm32f4xx_rcc.o(i.RCC_GetFlagStatus) for RCC_GetFlagStatus
    rtc.o(i.RtcInit) refers to stm32f4xx_rcc.o(i.RCC_RTCCLKConfig) for RCC_RTCCLKConfig
    rtc.o(i.RtcInit) refers to stm32f4xx_rcc.o(i.RCC_RTCCLKCmd) for RCC_RTCCLKCmd
    rtc.o(i.RtcInit) refers to stm32f4xx_rtc.o(i.RTC_Init) for RTC_Init
    rtc.o(i.RtcInit) refers to stm32f4xx_rtc.o(i.RTC_WriteBackupRegister) for RTC_WriteBackupRegister
    rtc.o(i.RtcInit) refers to rtc.o(.data) for RTC_SystemRunningSemaphore
    rtc.o(i.UpdataNetTime) refers to _scanf_str.o(.text) for _scanf_string
    rtc.o(i.UpdataNetTime) refers to _scanf_int.o(.text) for _scanf_int
    rtc.o(i.UpdataNetTime) refers to __0sscanf.o(.text) for __0sscanf
    rtc.o(i.UpdataNetTime) refers to stm32f4xx_rtc.o(i.RTC_ReadBackupRegister) for RTC_ReadBackupRegister
    rtc.o(i.UpdataNetTime) refers to stm32f4xx_pwr.o(i.PWR_BackupAccessCmd) for PWR_BackupAccessCmd
    rtc.o(i.UpdataNetTime) refers to stm32f4xx_rtc.o(i.RTC_WriteBackupRegister) for RTC_WriteBackupRegister
    rtc.o(i.UpdataNetTime) refers to common.o(i.chr2hex) for chr2hex
    rtc.o(i.UpdataNetTime) refers to common.o(i.Bcd2ToByte) for Bcd2ToByte
    rtc.o(i.UpdataNetTime) refers to rtc.o(i.CaculateWeekDay) for CaculateWeekDay
    rtc.o(i.UpdataNetTime) refers to queue.o(i.xQueueGenericReceive) for xQueueGenericReceive
    rtc.o(i.UpdataNetTime) refers to stm32f4xx_rtc.o(i.RTC_SetTime) for RTC_SetTime
    rtc.o(i.UpdataNetTime) refers to stm32f4xx_rtc.o(i.RTC_SetDate) for RTC_SetDate
    rtc.o(i.UpdataNetTime) refers to tasks.o(i.vTaskDelay) for vTaskDelay
    rtc.o(i.UpdataNetTime) refers to queue.o(i.xQueueGenericSend) for xQueueGenericSend
    rtc.o(i.UpdataNetTime) refers to rtc.o(.data) for RTC_SystemRunningSemaphore
    fsmc_nor.o(i.FSMC_NOR_EraseBlock) refers to fsmc_nor.o(i.FSMC_NOR_GetStatus) for FSMC_NOR_GetStatus
    fsmc_nor.o(i.FSMC_NOR_EraseChip) refers to fsmc_nor.o(i.FSMC_NOR_GetStatus) for FSMC_NOR_GetStatus
    fsmc_nor.o(i.FSMC_NOR_EraseSector) refers to fsmc_nor.o(i.FSMC_NOR_GetStatus) for FSMC_NOR_GetStatus
    fsmc_nor.o(i.FSMC_NOR_Init) refers to stm32f4xx_rcc.o(i.RCC_AHB1PeriphClockCmd) for RCC_AHB1PeriphClockCmd
    fsmc_nor.o(i.FSMC_NOR_Init) refers to stm32f4xx_rcc.o(i.RCC_AHB3PeriphClockCmd) for RCC_AHB3PeriphClockCmd
    fsmc_nor.o(i.FSMC_NOR_Init) refers to stm32f4xx_gpio.o(i.GPIO_Init) for GPIO_Init
    fsmc_nor.o(i.FSMC_NOR_Init) refers to stm32f4xx_gpio.o(i.GPIO_PinAFConfig) for GPIO_PinAFConfig
    fsmc_nor.o(i.FSMC_NOR_Init) refers to stm32f4xx_fsmc.o(i.FSMC_NORSRAMInit) for FSMC_NORSRAMInit
    fsmc_nor.o(i.FSMC_NOR_Init) refers to stm32f4xx_fsmc.o(i.FSMC_NORSRAMCmd) for FSMC_NORSRAMCmd
    fsmc_nor.o(i.FSMC_NOR_WriteBuffer) refers to fsmc_nor.o(i.FSMC_NOR_WriteHalfWord) for FSMC_NOR_WriteHalfWord
    fsmc_nor.o(i.FSMC_NOR_WriteHalfWord) refers to fsmc_nor.o(i.FSMC_NOR_GetStatus) for FSMC_NOR_GetStatus
    norflash.o(i.NorFlashEraseChip) refers to queue.o(i.xQueueGenericReceive) for xQueueGenericReceive
    norflash.o(i.NorFlashEraseChip) refers to fsmc_nor.o(i.FSMC_NOR_EraseChip) for FSMC_NOR_EraseChip
    norflash.o(i.NorFlashEraseChip) refers to sys_debug.o(i.printf_str) for printf_str
    norflash.o(i.NorFlashEraseChip) refers to queue.o(i.xQueueGenericSend) for xQueueGenericSend
    norflash.o(i.NorFlashEraseChip) refers to norflash.o(.data) for norflash_semaphore
    norflash.o(i.NorFlashEraseSector) refers to queue.o(i.xQueueGenericReceive) for xQueueGenericReceive
    norflash.o(i.NorFlashEraseSector) refers to fsmc_nor.o(i.FSMC_NOR_EraseSector) for FSMC_NOR_EraseSector
    norflash.o(i.NorFlashEraseSector) refers to sys_debug.o(i.printf_str) for printf_str
    norflash.o(i.NorFlashEraseSector) refers to queue.o(i.xQueueGenericSend) for xQueueGenericSend
    norflash.o(i.NorFlashEraseSector) refers to norflash.o(.data) for norflash_semaphore
    norflash.o(i.NorFlashInit) refers to fsmc_nor.o(i.FSMC_NOR_Init) for FSMC_NOR_Init
    norflash.o(i.NorFlashInit) refers to queue.o(i.xQueueCreateMutex) for xQueueCreateMutex
    norflash.o(i.NorFlashInit) refers to norflash.o(.data) for norflash_semaphore
    norflash.o(i.NorFlashRead) refers to queue.o(i.xQueueGenericReceive) for xQueueGenericReceive
    norflash.o(i.NorFlashRead) refers to fsmc_nor.o(i.FSMC_NOR_ReadBuffer) for FSMC_NOR_ReadBuffer
    norflash.o(i.NorFlashRead) refers to queue.o(i.xQueueGenericSend) for xQueueGenericSend
    norflash.o(i.NorFlashRead) refers to norflash.o(.data) for norflash_semaphore
    norflash.o(i.NorFlashWrite) refers to queue.o(i.xQueueGenericReceive) for xQueueGenericReceive
    norflash.o(i.NorFlashWrite) refers to fsmc_nor.o(i.FSMC_NOR_EraseSector) for FSMC_NOR_EraseSector
    norflash.o(i.NorFlashWrite) refers to sys_debug.o(i.printf_str) for printf_str
    norflash.o(i.NorFlashWrite) refers to fsmc_nor.o(i.FSMC_NOR_WriteBuffer) for FSMC_NOR_WriteBuffer
    norflash.o(i.NorFlashWrite) refers to queue.o(i.xQueueGenericSend) for xQueueGenericSend
    norflash.o(i.NorFlashWrite) refers to norflash.o(.data) for norflash_semaphore
    uart_debug.o(.rev16_text) refers (Special) to use_no_semi_2.o(.text) for __use_no_semihosting
    uart_debug.o(.revsh_text) refers (Special) to use_no_semi_2.o(.text) for __use_no_semihosting
    uart_debug.o(.rrx_text) refers (Special) to use_no_semi_2.o(.text) for __use_no_semihosting
    uart_debug.o(i.UartDebugHardwareInit) refers (Special) to use_no_semi_2.o(.text) for __use_no_semihosting
    uart_debug.o(i.UartDebugHardwareInit) refers to stm32f4xx_rcc.o(i.RCC_AHB1PeriphClockCmd) for RCC_AHB1PeriphClockCmd
    uart_debug.o(i.UartDebugHardwareInit) refers to stm32f4xx_rcc.o(i.RCC_APB2PeriphClockCmd) for RCC_APB2PeriphClockCmd
    uart_debug.o(i.UartDebugHardwareInit) refers to stm32f4xx_gpio.o(i.GPIO_PinAFConfig) for GPIO_PinAFConfig
    uart_debug.o(i.UartDebugHardwareInit) refers to stm32f4xx_gpio.o(i.GPIO_ResetBits) for GPIO_ResetBits
    uart_debug.o(i.UartDebugHardwareInit) refers to stm32f4xx_gpio.o(i.GPIO_Init) for GPIO_Init
    uart_debug.o(i.UartDebugHardwareInit) refers to stm32f4xx_usart.o(i.USART_Init) for USART_Init
    uart_debug.o(i.UartDebugHardwareInit) refers to stm32f4xx_usart.o(i.USART_Cmd) for USART_Cmd
    uart_debug.o(i.UartDebugHardwareInit) refers to stm32f4xx_usart.o(i.USART_ITConfig) for USART_ITConfig
    uart_debug.o(i.UartDebugHardwareInit) refers to misc.o(i.NVIC_Init) for NVIC_Init
    uart_debug.o(i._sys_exit) refers (Special) to use_no_semi_2.o(.text) for __use_no_semihosting
    uart_debug.o(i.fputc) refers (Special) to use_no_semi_2.o(.text) for __use_no_semihosting
    uart_debug.o(.data) refers (Special) to use_no_semi_2.o(.text) for __use_no_semihosting
    use_no_semi_2.o(.text) refers (Special) to use_no_semi.o(.text) for __use_no_semihosting_swi
    __2printf.o(.text) refers to _printf_char_file.o(.text) for _printf_char_file
    __2printf.o(.text) refers to uart_debug.o(.data) for __stdout
    __2sprintf.o(.text) refers to _printf_char_common.o(.text) for _printf_char_common
    __2sprintf.o(.text) refers to _sputc.o(.text) for _sputc
    noretval__2printf.o(.text) refers to _printf_char_file.o(.text) for _printf_char_file
    noretval__2printf.o(.text) refers to uart_debug.o(.data) for __stdout
    noretval__2sprintf.o(.text) refers to _printf_char_common.o(.text) for _printf_char_common
    noretval__2sprintf.o(.text) refers to _sputc.o(.text) for _sputc
    __printf.o(.text) refers to _printf_percent.o(.ARM.Collect$$_printf_percent$$00000000) for _printf_percent
    _printf_str.o(.text) refers (Special) to _printf_char.o(.text) for _printf_cs_common
    __printf_flags.o(.text) refers to _printf_percent.o(.ARM.Collect$$_printf_percent$$00000000) for _printf_percent
    __printf_flags.o(.text) refers to __printf_flags.o(.constdata) for .constdata
    __printf_ss.o(.text) refers to _printf_percent.o(.ARM.Collect$$_printf_percent$$00000000) for _printf_percent
    __printf_flags_ss.o(.text) refers to _printf_percent.o(.ARM.Collect$$_printf_percent$$00000000) for _printf_percent
    __printf_flags_ss.o(.text) refers to __printf_flags_ss.o(.constdata) for .constdata
    __printf_wp.o(.text) refers to __printf_wp.o(i._is_digit) for _is_digit
    __printf_wp.o(.text) refers to _printf_percent.o(.ARM.Collect$$_printf_percent$$00000000) for _printf_percent
    __printf_flags_wp.o(.text) refers to __printf_wp.o(i._is_digit) for _is_digit
    __printf_flags_wp.o(.text) refers to _printf_percent.o(.ARM.Collect$$_printf_percent$$00000000) for _printf_percent
    __printf_flags_wp.o(.text) refers to __printf_flags_wp.o(.constdata) for .constdata
    __printf_ss_wp.o(.text) refers to __printf_wp.o(i._is_digit) for _is_digit
    __printf_ss_wp.o(.text) refers to _printf_percent.o(.ARM.Collect$$_printf_percent$$00000000) for _printf_percent
    __printf_flags_ss_wp.o(.text) refers to __printf_wp.o(i._is_digit) for _is_digit
    __printf_flags_ss_wp.o(.text) refers to _printf_percent.o(.ARM.Collect$$_printf_percent$$00000000) for _printf_percent
    __printf_flags_ss_wp.o(.text) refers to __printf_flags_ss_wp.o(.constdata) for .constdata
    _printf_s.o(.ARM.Collect$$_printf_percent$$00000014) refers (Weak) to _printf_char.o(.text) for _printf_string
    _printf_percent.o(.ARM.Collect$$_printf_percent$$00000000) refers (Special) to _printf_percent_end.o(.ARM.Collect$$_printf_percent$$00000017) for _printf_percent_end
    __0sscanf.o(.text) refers to scanf_char.o(.text) for __vfscanf_char
    __0sscanf.o(.text) refers to _sgetc.o(.text) for _sgetc
    _scanf_int.o(.text) refers to _chval.o(.text) for _chval
    rt_memcpy_v6.o(.text) refers to rt_memcpy_w.o(.text) for __aeabi_memcpy4
    aeabi_memset.o(.text) refers to rt_memclr.o(.text) for _memset
    rt_memclr.o(.text) refers to rt_memclr_w.o(.text) for _memset_w
    strncpy.o(.text) refers to rt_memclr.o(.text) for __aeabi_memclr
    __main.o(!!!main) refers to __rtentry.o(.ARM.Collect$$rtentry$$00000000) for __rt_entry
    daddsub_clz.o(x$fpl$dadd) refers (Special) to usenofp.o(x$fpl$usenofp) for __I$use$fp
    daddsub_clz.o(x$fpl$dadd) refers to daddsub_clz.o(x$fpl$dsub) for _dsub1
    daddsub_clz.o(x$fpl$dadd) refers to dretinf.o(x$fpl$dretinf) for __fpl_dretinf
    daddsub_clz.o(x$fpl$dadd) refers to dnaninf.o(x$fpl$dnaninf) for __fpl_dnaninf
    daddsub_clz.o(x$fpl$drsb) refers (Special) to usenofp.o(x$fpl$usenofp) for __I$use$fp
    daddsub_clz.o(x$fpl$drsb) refers to daddsub_clz.o(x$fpl$dadd) for _dadd1
    daddsub_clz.o(x$fpl$drsb) refers to daddsub_clz.o(x$fpl$dsub) for _dsub1
    daddsub_clz.o(x$fpl$dsub) refers (Special) to usenofp.o(x$fpl$usenofp) for __I$use$fp
    daddsub_clz.o(x$fpl$dsub) refers to daddsub_clz.o(x$fpl$dadd) for _dadd1
    daddsub_clz.o(x$fpl$dsub) refers to dnaninf.o(x$fpl$dnaninf) for __fpl_dnaninf
    ddiv.o(x$fpl$drdiv) refers (Special) to usenofp.o(x$fpl$usenofp) for __I$use$fp
    ddiv.o(x$fpl$drdiv) refers to ddiv.o(x$fpl$ddiv) for ddiv_entry
    ddiv.o(x$fpl$ddiv) refers (Special) to usenofp.o(x$fpl$usenofp) for __I$use$fp
    ddiv.o(x$fpl$ddiv) refers to dretinf.o(x$fpl$dretinf) for __fpl_dretinf
    ddiv.o(x$fpl$ddiv) refers to dnaninf.o(x$fpl$dnaninf) for __fpl_dnaninf
    dfix.o(x$fpl$dfix) refers (Special) to usenofp.o(x$fpl$usenofp) for __I$use$fp
    dfix.o(x$fpl$dfix) refers to dnaninf.o(x$fpl$dnaninf) for __fpl_dnaninf
    dfix.o(x$fpl$dfixr) refers (Special) to usenofp.o(x$fpl$usenofp) for __I$use$fp
    dfix.o(x$fpl$dfixr) refers to dnaninf.o(x$fpl$dnaninf) for __fpl_dnaninf
    dfixu.o(x$fpl$dfixu) refers (Special) to usenofp.o(x$fpl$usenofp) for __I$use$fp
    dfixu.o(x$fpl$dfixu) refers to dnaninf.o(x$fpl$dnaninf) for __fpl_dnaninf
    dfixu.o(x$fpl$dfixur) refers (Special) to usenofp.o(x$fpl$usenofp) for __I$use$fp
    dfixu.o(x$fpl$dfixur) refers to dnaninf.o(x$fpl$dnaninf) for __fpl_dnaninf
    dflt_clz.o(x$fpl$dfltu) refers (Special) to usenofp.o(x$fpl$usenofp) for __I$use$fp
    dflt_clz.o(x$fpl$dflt) refers (Special) to usenofp.o(x$fpl$usenofp) for __I$use$fp
    dflt_clz.o(x$fpl$dfltn) refers (Special) to usenofp.o(x$fpl$usenofp) for __I$use$fp
    dmul.o(x$fpl$dmul) refers (Special) to usenofp.o(x$fpl$usenofp) for __I$use$fp
    dmul.o(x$fpl$dmul) refers to dretinf.o(x$fpl$dretinf) for __fpl_dretinf
    dmul.o(x$fpl$dmul) refers to dnaninf.o(x$fpl$dnaninf) for __fpl_dnaninf
    drleqf.o(x$fpl$drleqf) refers (Special) to usenofp.o(x$fpl$usenofp) for __I$use$fp
    drleqf.o(x$fpl$drleqf) refers to dleqf.o(x$fpl$dleqf) for __fpl_dcmple_InfNaN
    acos.o(i.__hardfp_acos) refers (Special) to usenofp.o(x$fpl$usenofp) for __I$use$fp
    acos.o(i.__hardfp_acos) refers to dunder.o(i.__mathlib_dbl_infnan) for __mathlib_dbl_infnan
    acos.o(i.__hardfp_acos) refers to _rserrno.o(.text) for __set_errno
    acos.o(i.__hardfp_acos) refers to dunder.o(i.__mathlib_dbl_invalid) for __mathlib_dbl_invalid
    acos.o(i.__hardfp_acos) refers to dmul.o(x$fpl$dmul) for __aeabi_dmul
    acos.o(i.__hardfp_acos) refers to poly.o(i.__kernel_poly) for __kernel_poly
    acos.o(i.__hardfp_acos) refers to daddsub_clz.o(x$fpl$dadd) for __aeabi_dadd
    acos.o(i.__hardfp_acos) refers to ddiv.o(x$fpl$ddiv) for __aeabi_ddiv
    acos.o(i.__hardfp_acos) refers to daddsub_clz.o(x$fpl$drsb) for __aeabi_drsub
    acos.o(i.__hardfp_acos) refers to sqrt.o(i.sqrt) for sqrt
    acos.o(i.__hardfp_acos) refers to daddsub_clz.o(x$fpl$dsub) for __aeabi_dsub
    acos.o(i.__hardfp_acos) refers to acos.o(.constdata) for .constdata
    acos.o(i.__softfp_acos) refers (Special) to usenofp.o(x$fpl$usenofp) for __I$use$fp
    acos.o(i.__softfp_acos) refers to acos.o(i.__hardfp_acos) for __hardfp_acos
    acos.o(i.acos) refers (Special) to usenofp.o(x$fpl$usenofp) for __I$use$fp
    acos.o(i.acos) refers to acos.o(i.__hardfp_acos) for __hardfp_acos
    acos.o(.constdata) refers (Special) to usenofp.o(x$fpl$usenofp) for __I$use$fp
    acos_x.o(i.____hardfp_acos$lsc) refers (Special) to usenofp.o(x$fpl$usenofp) for __I$use$fp
    acos_x.o(i.____hardfp_acos$lsc) refers to dunder.o(i.__mathlib_dbl_infnan) for __mathlib_dbl_infnan
    acos_x.o(i.____hardfp_acos$lsc) refers to _rserrno.o(.text) for __set_errno
    acos_x.o(i.____hardfp_acos$lsc) refers to dmul.o(x$fpl$dmul) for __aeabi_dmul
    acos_x.o(i.____hardfp_acos$lsc) refers to poly.o(i.__kernel_poly) for __kernel_poly
    acos_x.o(i.____hardfp_acos$lsc) refers to daddsub_clz.o(x$fpl$dadd) for __aeabi_dadd
    acos_x.o(i.____hardfp_acos$lsc) refers to ddiv.o(x$fpl$ddiv) for __aeabi_ddiv
    acos_x.o(i.____hardfp_acos$lsc) refers to daddsub_clz.o(x$fpl$drsb) for __aeabi_drsub
    acos_x.o(i.____hardfp_acos$lsc) refers to sqrt.o(i.sqrt) for sqrt
    acos_x.o(i.____hardfp_acos$lsc) refers to daddsub_clz.o(x$fpl$dsub) for __aeabi_dsub
    acos_x.o(i.____hardfp_acos$lsc) refers to acos_x.o(.constdata) for .constdata
    acos_x.o(i.____softfp_acos$lsc) refers (Special) to usenofp.o(x$fpl$usenofp) for __I$use$fp
    acos_x.o(i.____softfp_acos$lsc) refers to acos_x.o(i.____hardfp_acos$lsc) for ____hardfp_acos$lsc
    acos_x.o(i.__acos$lsc) refers (Special) to usenofp.o(x$fpl$usenofp) for __I$use$fp
    acos_x.o(i.__acos$lsc) refers to acos_x.o(i.____hardfp_acos$lsc) for ____hardfp_acos$lsc
    acos_x.o(.constdata) refers (Special) to usenofp.o(x$fpl$usenofp) for __I$use$fp
    asin.o(i.__hardfp_asin) refers (Special) to usenofp.o(x$fpl$usenofp) for __I$use$fp
    asin.o(i.__hardfp_asin) refers to dunder.o(i.__mathlib_dbl_infnan) for __mathlib_dbl_infnan
    asin.o(i.__hardfp_asin) refers to dmul.o(x$fpl$dmul) for __aeabi_dmul
    asin.o(i.__hardfp_asin) refers to daddsub_clz.o(x$fpl$dadd) for __aeabi_dadd
    asin.o(i.__hardfp_asin) refers to _rserrno.o(.text) for __set_errno
    asin.o(i.__hardfp_asin) refers to dunder.o(i.__mathlib_dbl_invalid) for __mathlib_dbl_invalid
    asin.o(i.__hardfp_asin) refers to fpclassify.o(i.__ARM_fpclassify) for __ARM_fpclassify
    asin.o(i.__hardfp_asin) refers to dunder.o(i.__mathlib_dbl_underflow) for __mathlib_dbl_underflow
    asin.o(i.__hardfp_asin) refers to poly.o(i.__kernel_poly) for __kernel_poly
    asin.o(i.__hardfp_asin) refers to ddiv.o(x$fpl$ddiv) for __aeabi_ddiv
    asin.o(i.__hardfp_asin) refers to fabs.o(i.fabs) for fabs
    asin.o(i.__hardfp_asin) refers to daddsub_clz.o(x$fpl$drsb) for __aeabi_drsub
    asin.o(i.__hardfp_asin) refers to sqrt.o(i.sqrt) for sqrt
    asin.o(i.__hardfp_asin) refers to daddsub_clz.o(x$fpl$dsub) for __aeabi_dsub
    asin.o(i.__hardfp_asin) refers to basic.o(x$fpl$basic) for __aeabi_dneg
    asin.o(i.__hardfp_asin) refers to asin.o(.constdata) for .constdata
    asin.o(i.__softfp_asin) refers (Special) to usenofp.o(x$fpl$usenofp) for __I$use$fp
    asin.o(i.__softfp_asin) refers to asin.o(i.__hardfp_asin) for __hardfp_asin
    asin.o(i.asin) refers (Special) to usenofp.o(x$fpl$usenofp) for __I$use$fp
    asin.o(i.asin) refers to asin.o(i.__hardfp_asin) for __hardfp_asin
    asin.o(.constdata) refers (Special) to usenofp.o(x$fpl$usenofp) for __I$use$fp
    asin_x.o(i.____hardfp_asin$lsc) refers (Special) to usenofp.o(x$fpl$usenofp) for __I$use$fp
    asin_x.o(i.____hardfp_asin$lsc) refers to dunder.o(i.__mathlib_dbl_infnan) for __mathlib_dbl_infnan
    asin_x.o(i.____hardfp_asin$lsc) refers to dmul.o(x$fpl$dmul) for __aeabi_dmul
    asin_x.o(i.____hardfp_asin$lsc) refers to daddsub_clz.o(x$fpl$dadd) for __aeabi_dadd
    asin_x.o(i.____hardfp_asin$lsc) refers to _rserrno.o(.text) for __set_errno
    asin_x.o(i.____hardfp_asin$lsc) refers to poly.o(i.__kernel_poly) for __kernel_poly
    asin_x.o(i.____hardfp_asin$lsc) refers to ddiv.o(x$fpl$ddiv) for __aeabi_ddiv
    asin_x.o(i.____hardfp_asin$lsc) refers to fabs.o(i.fabs) for fabs
    asin_x.o(i.____hardfp_asin$lsc) refers to daddsub_clz.o(x$fpl$drsb) for __aeabi_drsub
    asin_x.o(i.____hardfp_asin$lsc) refers to sqrt.o(i.sqrt) for sqrt
    asin_x.o(i.____hardfp_asin$lsc) refers to daddsub_clz.o(x$fpl$dsub) for __aeabi_dsub
    asin_x.o(i.____hardfp_asin$lsc) refers to basic.o(x$fpl$basic) for __aeabi_dneg
    asin_x.o(i.____hardfp_asin$lsc) refers to asin_x.o(.constdata) for .constdata
    asin_x.o(i.____softfp_asin$lsc) refers (Special) to usenofp.o(x$fpl$usenofp) for __I$use$fp
    asin_x.o(i.____softfp_asin$lsc) refers to asin_x.o(i.____hardfp_asin$lsc) for ____hardfp_asin$lsc
    asin_x.o(i.__asin$lsc) refers (Special) to usenofp.o(x$fpl$usenofp) for __I$use$fp
    asin_x.o(i.__asin$lsc) refers to asin_x.o(i.____hardfp_asin$lsc) for ____hardfp_asin$lsc
    asin_x.o(.constdata) refers (Special) to usenofp.o(x$fpl$usenofp) for __I$use$fp
    cos.o(i.__hardfp_cos) refers (Special) to usenofp.o(x$fpl$usenofp) for __I$use$fp
    cos.o(i.__hardfp_cos) refers to _rserrno.o(.text) for __set_errno
    cos.o(i.__hardfp_cos) refers to dunder.o(i.__mathlib_dbl_invalid) for __mathlib_dbl_invalid
    cos.o(i.__hardfp_cos) refers to dunder.o(i.__mathlib_dbl_infnan) for __mathlib_dbl_infnan
    cos.o(i.__hardfp_cos) refers to rred.o(i.__ieee754_rem_pio2) for __ieee754_rem_pio2
    cos.o(i.__hardfp_cos) refers to sin_i.o(i.__kernel_sin) for __kernel_sin
    cos.o(i.__hardfp_cos) refers to cos_i.o(i.__kernel_cos) for __kernel_cos
    cos.o(i.__hardfp_cos) refers to basic.o(x$fpl$basic) for __aeabi_dneg
    cos.o(i.__softfp_cos) refers (Special) to usenofp.o(x$fpl$usenofp) for __I$use$fp
    cos.o(i.__softfp_cos) refers to cos.o(i.__hardfp_cos) for __hardfp_cos
    cos.o(i.cos) refers (Special) to usenofp.o(x$fpl$usenofp) for __I$use$fp
    cos.o(i.cos) refers to cos.o(i.__hardfp_cos) for __hardfp_cos
    cos_x.o(i.____hardfp_cos$lsc) refers (Special) to usenofp.o(x$fpl$usenofp) for __I$use$fp
    cos_x.o(i.____hardfp_cos$lsc) refers to _rserrno.o(.text) for __set_errno
    cos_x.o(i.____hardfp_cos$lsc) refers to dunder.o(i.__mathlib_dbl_infnan) for __mathlib_dbl_infnan
    cos_x.o(i.____hardfp_cos$lsc) refers to rred.o(i.__ieee754_rem_pio2) for __ieee754_rem_pio2
    cos_x.o(i.____hardfp_cos$lsc) refers to sin_i.o(i.__kernel_sin) for __kernel_sin
    cos_x.o(i.____hardfp_cos$lsc) refers to cos_i.o(i.__kernel_cos) for __kernel_cos
    cos_x.o(i.____hardfp_cos$lsc) refers to basic.o(x$fpl$basic) for __aeabi_dneg
    cos_x.o(i.____softfp_cos$lsc) refers (Special) to usenofp.o(x$fpl$usenofp) for __I$use$fp
    cos_x.o(i.____softfp_cos$lsc) refers to cos_x.o(i.____hardfp_cos$lsc) for ____hardfp_cos$lsc
    cos_x.o(i.__cos$lsc) refers (Special) to usenofp.o(x$fpl$usenofp) for __I$use$fp
    cos_x.o(i.__cos$lsc) refers to cos_x.o(i.____hardfp_cos$lsc) for ____hardfp_cos$lsc
    sin.o(i.__hardfp_sin) refers (Special) to usenofp.o(x$fpl$usenofp) for __I$use$fp
    sin.o(i.__hardfp_sin) refers to _rserrno.o(.text) for __set_errno
    sin.o(i.__hardfp_sin) refers to dunder.o(i.__mathlib_dbl_invalid) for __mathlib_dbl_invalid
    sin.o(i.__hardfp_sin) refers to dunder.o(i.__mathlib_dbl_infnan) for __mathlib_dbl_infnan
    sin.o(i.__hardfp_sin) refers to rred.o(i.__ieee754_rem_pio2) for __ieee754_rem_pio2
    sin.o(i.__hardfp_sin) refers to cos_i.o(i.__kernel_cos) for __kernel_cos
    sin.o(i.__hardfp_sin) refers to basic.o(x$fpl$basic) for __aeabi_dneg
    sin.o(i.__hardfp_sin) refers to sin_i.o(i.__kernel_sin) for __kernel_sin
    sin.o(i.__softfp_sin) refers (Special) to usenofp.o(x$fpl$usenofp) for __I$use$fp
    sin.o(i.__softfp_sin) refers to sin.o(i.__hardfp_sin) for __hardfp_sin
    sin.o(i.sin) refers (Special) to usenofp.o(x$fpl$usenofp) for __I$use$fp
    sin.o(i.sin) refers to sin.o(i.__hardfp_sin) for __hardfp_sin
    sin_x.o(i.____hardfp_sin$lsc) refers (Special) to usenofp.o(x$fpl$usenofp) for __I$use$fp
    sin_x.o(i.____hardfp_sin$lsc) refers to _rserrno.o(.text) for __set_errno
    sin_x.o(i.____hardfp_sin$lsc) refers to dunder.o(i.__mathlib_dbl_infnan) for __mathlib_dbl_infnan
    sin_x.o(i.____hardfp_sin$lsc) refers to rred.o(i.__ieee754_rem_pio2) for __ieee754_rem_pio2
    sin_x.o(i.____hardfp_sin$lsc) refers to cos_i.o(i.__kernel_cos) for __kernel_cos
    sin_x.o(i.____hardfp_sin$lsc) refers to basic.o(x$fpl$basic) for __aeabi_dneg
    sin_x.o(i.____hardfp_sin$lsc) refers to sin_i.o(i.__kernel_sin) for __kernel_sin
    sin_x.o(i.____softfp_sin$lsc) refers (Special) to usenofp.o(x$fpl$usenofp) for __I$use$fp
    sin_x.o(i.____softfp_sin$lsc) refers to sin_x.o(i.____hardfp_sin$lsc) for ____hardfp_sin$lsc
    sin_x.o(i.__sin$lsc) refers (Special) to usenofp.o(x$fpl$usenofp) for __I$use$fp
    sin_x.o(i.__sin$lsc) refers to sin_x.o(i.____hardfp_sin$lsc) for ____hardfp_sin$lsc
    __rtentry.o(.ARM.Collect$$rtentry$$00000000) refers (Special) to __rtentry2.o(.ARM.Collect$$rtentry$$0000000A) for __rt_entry_li
    __rtentry.o(.ARM.Collect$$rtentry$$00000000) refers (Special) to __rtentry2.o(.ARM.Collect$$rtentry$$0000000D) for __rt_entry_main
    __rtentry.o(.ARM.Collect$$rtentry$$00000000) refers (Special) to __rtentry2.o(.ARM.Collect$$rtentry$$0000000C) for __rt_entry_postli_1
    __rtentry.o(.ARM.Collect$$rtentry$$00000000) refers (Special) to __rtentry2.o(.ARM.Collect$$rtentry$$00000009) for __rt_entry_postsh_1
    __rtentry.o(.ARM.Collect$$rtentry$$00000000) refers (Special) to __rtentry2.o(.ARM.Collect$$rtentry$$00000002) for __rt_entry_presh_1
    __rtentry.o(.ARM.Collect$$rtentry$$00000000) refers (Special) to __rtentry4.o(.ARM.Collect$$rtentry$$00000004) for __rt_entry_sh
    _rserrno.o(.text) refers to rt_errno_addr_intlibspace.o(.text) for __aeabi_errno_addr
    _printf_char_common.o(.text) refers to __printf_wp.o(.text) for __printf
    _printf_char.o(.text) refers (Weak) to _printf_str.o(.text) for _printf_str
    _printf_char_file.o(.text) refers to _printf_char_common.o(.text) for _printf_char_common
    _printf_char_file.o(.text) refers to ferror.o(.text) for ferror
    _printf_char_file.o(.text) refers to uart_debug.o(i.fputc) for fputc
    scanf_char.o(.text) refers to _scanf.o(.text) for __vfscanf
    scanf_char.o(.text) refers to isspace.o(.text) for isspace
    basic.o(x$fpl$basic) refers (Special) to usenofp.o(x$fpl$usenofp) for __I$use$fp
    dleqf.o(x$fpl$dleqf) refers (Special) to usenofp.o(x$fpl$usenofp) for __I$use$fp
    dleqf.o(x$fpl$dleqf) refers to dnaninf.o(x$fpl$dnaninf) for __fpl_dnaninf
    dleqf.o(x$fpl$dleqf) refers to dcmpi.o(x$fpl$dcmpinf) for __fpl_dcmp_Inf
    dnaninf.o(x$fpl$dnaninf) refers (Special) to usenofp.o(x$fpl$usenofp) for __I$use$fp
    dretinf.o(x$fpl$dretinf) refers (Special) to usenofp.o(x$fpl$usenofp) for __I$use$fp
    cos_i.o(i.__kernel_cos) refers (Special) to usenofp.o(x$fpl$usenofp) for __I$use$fp
    cos_i.o(i.__kernel_cos) refers to dfix.o(x$fpl$dfix) for __aeabi_d2iz
    cos_i.o(i.__kernel_cos) refers to dmul.o(x$fpl$dmul) for __aeabi_dmul
    cos_i.o(i.__kernel_cos) refers to poly.o(i.__kernel_poly) for __kernel_poly
    cos_i.o(i.__kernel_cos) refers to daddsub_clz.o(x$fpl$dsub) for __aeabi_dsub
    cos_i.o(i.__kernel_cos) refers to daddsub_clz.o(x$fpl$drsb) for __aeabi_drsub
    cos_i.o(i.__kernel_cos) refers to cos_i.o(.constdata) for .constdata
    cos_i.o(.constdata) refers (Special) to usenofp.o(x$fpl$usenofp) for __I$use$fp
    dunder.o(i.__mathlib_dbl_divzero) refers to ddiv.o(x$fpl$ddiv) for __aeabi_ddiv
    dunder.o(i.__mathlib_dbl_infnan) refers to daddsub_clz.o(x$fpl$dadd) for __aeabi_dadd
    dunder.o(i.__mathlib_dbl_infnan2) refers to daddsub_clz.o(x$fpl$dadd) for __aeabi_dadd
    dunder.o(i.__mathlib_dbl_invalid) refers to ddiv.o(x$fpl$ddiv) for __aeabi_ddiv
    dunder.o(i.__mathlib_dbl_overflow) refers to dmul.o(x$fpl$dmul) for __aeabi_dmul
    dunder.o(i.__mathlib_dbl_posinfnan) refers to dmul.o(x$fpl$dmul) for __aeabi_dmul
    dunder.o(i.__mathlib_dbl_underflow) refers to dmul.o(x$fpl$dmul) for __aeabi_dmul
    fabs.o(i.__hardfp_fabs) refers (Special) to usenofp.o(x$fpl$usenofp) for __I$use$fp
    fabs.o(i.__softfp_fabs) refers (Special) to usenofp.o(x$fpl$usenofp) for __I$use$fp
    fabs.o(i.fabs) refers (Special) to usenofp.o(x$fpl$usenofp) for __I$use$fp
    fpclassify.o(i.__ARM_fpclassify) refers (Special) to usenofp.o(x$fpl$usenofp) for __I$use$fp
    poly.o(i.__kernel_poly) refers (Special) to usenofp.o(x$fpl$usenofp) for __I$use$fp
    poly.o(i.__kernel_poly) refers to dmul.o(x$fpl$dmul) for __aeabi_dmul
    poly.o(i.__kernel_poly) refers to daddsub_clz.o(x$fpl$dadd) for __aeabi_dadd
    rred.o(i.__ieee754_rem_pio2) refers (Special) to usenofp.o(x$fpl$usenofp) for __I$use$fp
    rred.o(i.__ieee754_rem_pio2) refers to daddsub_clz.o(x$fpl$dsub) for __aeabi_dsub
    rred.o(i.__ieee754_rem_pio2) refers to daddsub_clz.o(x$fpl$dadd) for __aeabi_dadd
    rred.o(i.__ieee754_rem_pio2) refers to fabs.o(i.fabs) for fabs
    rred.o(i.__ieee754_rem_pio2) refers to dmul.o(x$fpl$dmul) for __aeabi_dmul
    rred.o(i.__ieee754_rem_pio2) refers to dfix.o(x$fpl$dfix) for __aeabi_d2iz
    rred.o(i.__ieee754_rem_pio2) refers to dflt_clz.o(x$fpl$dflt) for __aeabi_i2d
    rred.o(i.__ieee754_rem_pio2) refers to daddsub_clz.o(x$fpl$drsb) for __aeabi_drsub
    rred.o(i.__ieee754_rem_pio2) refers to basic.o(x$fpl$basic) for __aeabi_dneg
    rred.o(i.__ieee754_rem_pio2) refers to dflt_clz.o(x$fpl$dfltu) for __aeabi_ui2d
    rred.o(i.__ieee754_rem_pio2) refers to rred.o(.constdata) for .constdata
    rred.o(i.__use_accurate_range_reduction) refers (Special) to usenofp.o(x$fpl$usenofp) for __I$use$fp
    rred.o(.constdata) refers (Special) to usenofp.o(x$fpl$usenofp) for __I$use$fp
    sin_i.o(i.__kernel_sin) refers (Special) to usenofp.o(x$fpl$usenofp) for __I$use$fp
    sin_i.o(i.__kernel_sin) refers to fpclassify.o(i.__ARM_fpclassify) for __ARM_fpclassify
    sin_i.o(i.__kernel_sin) refers to dunder.o(i.__mathlib_dbl_underflow) for __mathlib_dbl_underflow
    sin_i.o(i.__kernel_sin) refers to dmul.o(x$fpl$dmul) for __aeabi_dmul
    sin_i.o(i.__kernel_sin) refers to poly.o(i.__kernel_poly) for __kernel_poly
    sin_i.o(i.__kernel_sin) refers to daddsub_clz.o(x$fpl$dsub) for __aeabi_dsub
    sin_i.o(i.__kernel_sin) refers to daddsub_clz.o(x$fpl$drsb) for __aeabi_drsub
    sin_i.o(i.__kernel_sin) refers to daddsub_clz.o(x$fpl$dadd) for __aeabi_dadd
    sin_i.o(i.__kernel_sin) refers to sin_i.o(.constdata) for .constdata
    sin_i.o(.constdata) refers (Special) to usenofp.o(x$fpl$usenofp) for __I$use$fp
    sin_i_x.o(i.____kernel_sin$lsc) refers (Special) to usenofp.o(x$fpl$usenofp) for __I$use$fp
    sin_i_x.o(i.____kernel_sin$lsc) refers to dmul.o(x$fpl$dmul) for __aeabi_dmul
    sin_i_x.o(i.____kernel_sin$lsc) refers to poly.o(i.__kernel_poly) for __kernel_poly
    sin_i_x.o(i.____kernel_sin$lsc) refers to daddsub_clz.o(x$fpl$dsub) for __aeabi_dsub
    sin_i_x.o(i.____kernel_sin$lsc) refers to daddsub_clz.o(x$fpl$drsb) for __aeabi_drsub
    sin_i_x.o(i.____kernel_sin$lsc) refers to daddsub_clz.o(x$fpl$dadd) for __aeabi_dadd
    sin_i_x.o(i.____kernel_sin$lsc) refers to sin_i_x.o(.constdata) for .constdata
    sin_i_x.o(.constdata) refers (Special) to usenofp.o(x$fpl$usenofp) for __I$use$fp
    sqrt.o(i.__hardfp_sqrt) refers (Special) to usenofp.o(x$fpl$usenofp) for __I$use$fp
    sqrt.o(i.__hardfp_sqrt) refers to dsqrt_umaal.o(x$fpl$dsqrt) for _dsqrt
    sqrt.o(i.__hardfp_sqrt) refers to _rserrno.o(.text) for __set_errno
    sqrt.o(i.__softfp_sqrt) refers (Special) to usenofp.o(x$fpl$usenofp) for __I$use$fp
    sqrt.o(i.__softfp_sqrt) refers to dsqrt_umaal.o(x$fpl$dsqrt) for _dsqrt
    sqrt.o(i.__softfp_sqrt) refers to _rserrno.o(.text) for __set_errno
    sqrt.o(i.sqrt) refers (Special) to usenofp.o(x$fpl$usenofp) for __I$use$fp
    sqrt.o(i.sqrt) refers to dsqrt_umaal.o(x$fpl$dsqrt) for _dsqrt
    sqrt.o(i.sqrt) refers to _rserrno.o(.text) for __set_errno
    sqrt_x.o(i.____hardfp_sqrt$lsc) refers (Special) to usenofp.o(x$fpl$usenofp) for __I$use$fp
    sqrt_x.o(i.____hardfp_sqrt$lsc) refers to dleqf.o(x$fpl$dleqf) for __aeabi_cdcmple
    sqrt_x.o(i.____hardfp_sqrt$lsc) refers to _rserrno.o(.text) for __set_errno
    sqrt_x.o(i.____hardfp_sqrt$lsc) refers to dsqrt_umaal.o(x$fpl$dsqrt) for _dsqrt
    sqrt_x.o(i.____softfp_sqrt$lsc) refers (Special) to usenofp.o(x$fpl$usenofp) for __I$use$fp
    sqrt_x.o(i.____softfp_sqrt$lsc) refers to dleqf.o(x$fpl$dleqf) for __aeabi_cdcmple
    sqrt_x.o(i.____softfp_sqrt$lsc) refers to _rserrno.o(.text) for __set_errno
    sqrt_x.o(i.____softfp_sqrt$lsc) refers to dsqrt_umaal.o(x$fpl$dsqrt) for _dsqrt
    sqrt_x.o(i.__sqrt$lsc) refers (Special) to usenofp.o(x$fpl$usenofp) for __I$use$fp
    sqrt_x.o(i.__sqrt$lsc) refers to dleqf.o(x$fpl$dleqf) for __aeabi_cdcmple
    sqrt_x.o(i.__sqrt$lsc) refers to _rserrno.o(.text) for __set_errno
    sqrt_x.o(i.__sqrt$lsc) refers to dsqrt_umaal.o(x$fpl$dsqrt) for _dsqrt
    __rtentry2.o(.ARM.Collect$$rtentry$$00000008) refers to boardinit2.o(.text) for _platform_post_stackheap_init
    __rtentry2.o(.ARM.Collect$$rtentry$$0000000A) refers to libinit.o(.ARM.Collect$$libinit$$00000000) for __rt_lib_init
    __rtentry2.o(.ARM.Collect$$rtentry$$0000000B) refers to boardinit3.o(.text) for _platform_post_lib_init
    __rtentry2.o(.ARM.Collect$$rtentry$$0000000D) refers to main.o(i.main) for main
    __rtentry2.o(.ARM.Collect$$rtentry$$0000000D) refers to exit.o(.text) for exit
    __rtentry2.o(.ARM.exidx) refers to __rtentry2.o(.ARM.Collect$$rtentry$$00000001) for .ARM.Collect$$rtentry$$00000001
    __rtentry2.o(.ARM.exidx) refers to __rtentry2.o(.ARM.Collect$$rtentry$$00000008) for .ARM.Collect$$rtentry$$00000008
    __rtentry2.o(.ARM.exidx) refers to __rtentry2.o(.ARM.Collect$$rtentry$$0000000A) for .ARM.Collect$$rtentry$$0000000A
    __rtentry2.o(.ARM.exidx) refers to __rtentry2.o(.ARM.Collect$$rtentry$$0000000B) for .ARM.Collect$$rtentry$$0000000B
    __rtentry2.o(.ARM.exidx) refers to __rtentry2.o(.ARM.Collect$$rtentry$$0000000D) for .ARM.Collect$$rtentry$$0000000D
    __rtentry4.o(.ARM.Collect$$rtentry$$00000004) refers to sys_stackheap_outer.o(.text) for __user_setup_stackheap
    __rtentry4.o(.ARM.exidx) refers to __rtentry4.o(.ARM.Collect$$rtentry$$00000004) for .ARM.Collect$$rtentry$$00000004
    rt_errno_addr.o(.text) refers to rt_errno_addr.o(.bss) for __aeabi_errno_addr_data
    rt_errno_addr_intlibspace.o(.text) refers to libspace.o(.bss) for __libspace_start
    isspace.o(.text) refers to rt_ctype_table.o(.text) for __rt_ctype_table
    _scanf.o(.text) refers (Weak) to _scanf_int.o(.text) for _scanf_int
    _scanf.o(.text) refers (Weak) to _scanf_str.o(.text) for _scanf_string
    dcmpi.o(x$fpl$dcmpinf) refers (Special) to usenofp.o(x$fpl$usenofp) for __I$use$fp
    dsqrt_umaal.o(x$fpl$dsqrt) refers (Special) to usenofp.o(x$fpl$usenofp) for __I$use$fp
    dsqrt_umaal.o(x$fpl$dsqrt) refers to dnaninf.o(x$fpl$dnaninf) for __fpl_dnaninf
    libspace.o(.text) refers to libspace.o(.bss) for __libspace_start
    sys_stackheap_outer.o(.text) refers to libspace.o(.text) for __user_perproc_libspace
    sys_stackheap_outer.o(.text) refers to startup_stm32f40_41xxx.o(.text) for __user_initial_stackheap
    rt_ctype_table.o(.text) refers to rt_locale_intlibspace.o(.text) for __rt_locale
    rt_ctype_table.o(.text) refers to lc_ctype_c.o(locale$$code) for _get_lc_ctype
    exit.o(.text) refers to rtexit.o(.ARM.Collect$$rtexit$$00000000) for __rt_exit
    libinit.o(.ARM.Collect$$libinit$$00000000) refers (Special) to libinit2.o(.ARM.Collect$$libinit$$0000002E) for __rt_lib_init_alloca_1
    libinit.o(.ARM.Collect$$libinit$$00000000) refers (Special) to libinit2.o(.ARM.Collect$$libinit$$0000002C) for __rt_lib_init_argv_1
    libinit.o(.ARM.Collect$$libinit$$00000000) refers (Special) to libinit2.o(.ARM.Collect$$libinit$$0000001B) for __rt_lib_init_atexit_1
    libinit.o(.ARM.Collect$$libinit$$00000000) refers (Special) to libinit2.o(.ARM.Collect$$libinit$$00000021) for __rt_lib_init_clock_1
    libinit.o(.ARM.Collect$$libinit$$00000000) refers (Special) to libinit2.o(.ARM.Collect$$libinit$$00000032) for __rt_lib_init_cpp_1
    libinit.o(.ARM.Collect$$libinit$$00000000) refers (Special) to libinit2.o(.ARM.Collect$$libinit$$00000030) for __rt_lib_init_exceptions_1
    libinit.o(.ARM.Collect$$libinit$$00000000) refers (Special) to libinit2.o(.ARM.Collect$$libinit$$00000001) for __rt_lib_init_fp_1
    libinit.o(.ARM.Collect$$libinit$$00000000) refers (Special) to libinit2.o(.ARM.Collect$$libinit$$0000001F) for __rt_lib_init_fp_trap_1
    libinit.o(.ARM.Collect$$libinit$$00000000) refers (Special) to libinit2.o(.ARM.Collect$$libinit$$00000023) for __rt_lib_init_getenv_1
    libinit.o(.ARM.Collect$$libinit$$00000000) refers (Special) to libinit2.o(.ARM.Collect$$libinit$$0000000A) for __rt_lib_init_heap_1
    libinit.o(.ARM.Collect$$libinit$$00000000) refers (Special) to libinit2.o(.ARM.Collect$$libinit$$00000011) for __rt_lib_init_lc_collate_1
    libinit.o(.ARM.Collect$$libinit$$00000000) refers (Special) to libinit2.o(.ARM.Collect$$libinit$$00000013) for __rt_lib_init_lc_ctype_1
    libinit.o(.ARM.Collect$$libinit$$00000000) refers (Special) to libinit2.o(.ARM.Collect$$libinit$$00000015) for __rt_lib_init_lc_monetary_1
    libinit.o(.ARM.Collect$$libinit$$00000000) refers (Special) to libinit2.o(.ARM.Collect$$libinit$$00000017) for __rt_lib_init_lc_numeric_1
    libinit.o(.ARM.Collect$$libinit$$00000000) refers (Special) to libinit2.o(.ARM.Collect$$libinit$$00000019) for __rt_lib_init_lc_time_1
    libinit.o(.ARM.Collect$$libinit$$00000000) refers (Special) to libinit2.o(.ARM.Collect$$libinit$$00000004) for __rt_lib_init_preinit_1
    libinit.o(.ARM.Collect$$libinit$$00000000) refers (Special) to libinit2.o(.ARM.Collect$$libinit$$0000000E) for __rt_lib_init_rand_1
    libinit.o(.ARM.Collect$$libinit$$00000000) refers (Special) to libinit2.o(.ARM.Collect$$libinit$$00000033) for __rt_lib_init_return
    libinit.o(.ARM.Collect$$libinit$$00000000) refers (Special) to libinit2.o(.ARM.Collect$$libinit$$0000001D) for __rt_lib_init_signal_1
    libinit.o(.ARM.Collect$$libinit$$00000000) refers (Special) to libinit2.o(.ARM.Collect$$libinit$$00000025) for __rt_lib_init_stdio_1
    libinit.o(.ARM.Collect$$libinit$$00000000) refers (Special) to libinit2.o(.ARM.Collect$$libinit$$0000000C) for __rt_lib_init_user_alloc_1
    rtexit.o(.ARM.Collect$$rtexit$$00000000) refers (Special) to rtexit2.o(.ARM.Collect$$rtexit$$00000004) for __rt_exit_exit
    rtexit.o(.ARM.Collect$$rtexit$$00000000) refers (Special) to rtexit2.o(.ARM.Collect$$rtexit$$00000003) for __rt_exit_ls
    rtexit.o(.ARM.Collect$$rtexit$$00000000) refers (Special) to rtexit2.o(.ARM.Collect$$rtexit$$00000002) for __rt_exit_prels_1
    rtexit.o(.ARM.exidx) refers (Special) to rtexit2.o(.ARM.Collect$$rtexit$$00000004) for __rt_exit_exit
    rtexit.o(.ARM.exidx) refers (Special) to rtexit2.o(.ARM.Collect$$rtexit$$00000003) for __rt_exit_ls
    rtexit.o(.ARM.exidx) refers (Special) to rtexit2.o(.ARM.Collect$$rtexit$$00000002) for __rt_exit_prels_1
    rtexit.o(.ARM.exidx) refers to rtexit.o(.ARM.Collect$$rtexit$$00000000) for .ARM.Collect$$rtexit$$00000000
    rt_locale.o(.text) refers to rt_locale.o(.bss) for __rt_locale_data
    rt_locale_intlibspace.o(.text) refers to libspace.o(.bss) for __libspace_start
    lc_ctype_c.o(locale$$data) refers (Special) to libinit2.o(.ARM.Collect$$libinit$$00000012) for __rt_lib_init_lc_ctype_2
    lc_ctype_c.o(locale$$code) refers (Special) to libinit2.o(.ARM.Collect$$libinit$$00000012) for __rt_lib_init_lc_ctype_2
    lc_ctype_c.o(locale$$code) refers to strcmpv7m.o(.text) for strcmp
    lc_ctype_c.o(locale$$code) refers to lc_ctype_c.o(locale$$data) for __lcctype_c_name
    libinit2.o(.ARM.Collect$$libinit$$00000001) refers to fpinit.o(x$fpl$fpinit) for _fp_init
    libinit2.o(.ARM.Collect$$libinit$$0000000F) refers (Weak) to rt_locale_intlibspace.o(.text) for __rt_locale
    libinit2.o(.ARM.Collect$$libinit$$00000010) refers to libinit2.o(.ARM.Collect$$libinit$$0000000F) for .ARM.Collect$$libinit$$0000000F
    libinit2.o(.ARM.Collect$$libinit$$00000012) refers to libinit2.o(.ARM.Collect$$libinit$$0000000F) for .ARM.Collect$$libinit$$0000000F
    libinit2.o(.ARM.Collect$$libinit$$00000012) refers (Weak) to lc_ctype_c.o(locale$$code) for _get_lc_ctype
    libinit2.o(.ARM.Collect$$libinit$$00000014) refers to libinit2.o(.ARM.Collect$$libinit$$0000000F) for .ARM.Collect$$libinit$$0000000F
    libinit2.o(.ARM.Collect$$libinit$$00000016) refers to libinit2.o(.ARM.Collect$$libinit$$0000000F) for .ARM.Collect$$libinit$$0000000F
    libinit2.o(.ARM.Collect$$libinit$$00000018) refers to libinit2.o(.ARM.Collect$$libinit$$0000000F) for .ARM.Collect$$libinit$$0000000F
    libinit2.o(.ARM.Collect$$libinit$$00000026) refers to argv_veneer.o(.emb_text) for __ARM_argv_veneer
    libinit2.o(.ARM.Collect$$libinit$$00000027) refers to argv_veneer.o(.emb_text) for __ARM_argv_veneer
    rtexit2.o(.ARM.Collect$$rtexit$$00000003) refers to libshutdown.o(.ARM.Collect$$libshutdown$$00000000) for __rt_lib_shutdown
    rtexit2.o(.ARM.Collect$$rtexit$$00000004) refers to uart_debug.o(i._sys_exit) for _sys_exit
    rtexit2.o(.ARM.exidx) refers to rtexit2.o(.ARM.Collect$$rtexit$$00000001) for .ARM.Collect$$rtexit$$00000001
    rtexit2.o(.ARM.exidx) refers to rtexit2.o(.ARM.Collect$$rtexit$$00000003) for .ARM.Collect$$rtexit$$00000003
    rtexit2.o(.ARM.exidx) refers to rtexit2.o(.ARM.Collect$$rtexit$$00000004) for .ARM.Collect$$rtexit$$00000004
    argv_veneer.o(.emb_text) refers to no_argv.o(.text) for __ARM_get_argv
    _get_argv_nomalloc.o(.text) refers (Special) to hrguard.o(.text) for __heap_region$guard
    _get_argv_nomalloc.o(.text) refers to defsig_rtmem_outer.o(.text) for __rt_SIGRTMEM
    _get_argv_nomalloc.o(.text) refers to sys_command.o(.text) for _sys_command_string
    libshutdown.o(.ARM.Collect$$libshutdown$$00000000) refers (Special) to libshutdown2.o(.ARM.Collect$$libshutdown$$00000006) for __rt_lib_shutdown_fp_trap_1
    libshutdown.o(.ARM.Collect$$libshutdown$$00000000) refers (Special) to libshutdown2.o(.ARM.Collect$$libshutdown$$0000000E) for __rt_lib_shutdown_heap_1
    libshutdown.o(.ARM.Collect$$libshutdown$$00000000) refers (Special) to libshutdown2.o(.ARM.Collect$$libshutdown$$0000000F) for __rt_lib_shutdown_return
    libshutdown.o(.ARM.Collect$$libshutdown$$00000000) refers (Special) to libshutdown2.o(.ARM.Collect$$libshutdown$$00000009) for __rt_lib_shutdown_signal_1
    libshutdown.o(.ARM.Collect$$libshutdown$$00000000) refers (Special) to libshutdown2.o(.ARM.Collect$$libshutdown$$00000003) for __rt_lib_shutdown_stdio_1
    libshutdown.o(.ARM.Collect$$libshutdown$$00000000) refers (Special) to libshutdown2.o(.ARM.Collect$$libshutdown$$0000000B) for __rt_lib_shutdown_user_alloc_1
    sys_command.o(.text) refers (Special) to use_no_semi.o(.text) for __I$use$semihosting
    sys_command.o(.text) refers (Special) to indicate_semi.o(.text) for __semihosting_library_function
    defsig_rtmem_outer.o(.text) refers to defsig_rtmem_inner.o(.text) for __rt_SIGRTMEM_inner
    defsig_rtmem_outer.o(.text) refers to defsig_exit.o(.text) for __sig_exit
    defsig_rtmem_formal.o(.text) refers to rt_raise.o(.text) for __rt_raise
    rt_raise.o(.text) refers to __raise.o(.text) for __raise
    rt_raise.o(.text) refers to uart_debug.o(i._sys_exit) for _sys_exit
    defsig_exit.o(.text) refers to uart_debug.o(i._sys_exit) for _sys_exit
    defsig_rtmem_inner.o(.text) refers to defsig_general.o(.text) for __default_signal_display
    __raise.o(.text) refers to defsig.o(CL$$defsig) for __default_signal_handler
    defsig_general.o(.text) refers to sys_wrch.o(.text) for _ttywrch
    sys_wrch.o(.text) refers (Special) to use_no_semi.o(.text) for __I$use$semihosting
    sys_wrch.o(.text) refers (Special) to indicate_semi.o(.text) for __semihosting_library_function
    defsig.o(CL$$defsig) refers to defsig_rtmem_inner.o(.text) for __rt_SIGRTMEM_inner
    defsig_abrt_inner.o(.text) refers to defsig_general.o(.text) for __default_signal_display
    defsig_fpe_inner.o(.text) refers to defsig_general.o(.text) for __default_signal_display
    defsig_rtred_inner.o(.text) refers to defsig_general.o(.text) for __default_signal_display
    defsig_stak_inner.o(.text) refers to defsig_general.o(.text) for __default_signal_display
    defsig_pvfn_inner.o(.text) refers to defsig_general.o(.text) for __default_signal_display
    defsig_cppl_inner.o(.text) refers to defsig_general.o(.text) for __default_signal_display
    defsig_segv_inner.o(.text) refers to defsig_general.o(.text) for __default_signal_display
    defsig_other.o(.text) refers to defsig_general.o(.text) for __default_signal_display


==============================================================================

Removing Unused input sections from the image.

    Removing stm32f4xx_it.o(.rev16_text), (4 bytes).
    Removing stm32f4xx_it.o(.revsh_text), (4 bytes).
    Removing stm32f4xx_it.o(.rrx_text), (6 bytes).
    Removing system_stm32f4xx.o(.rev16_text), (4 bytes).
    Removing system_stm32f4xx.o(.revsh_text), (4 bytes).
    Removing system_stm32f4xx.o(.rrx_text), (6 bytes).
    Removing system_stm32f4xx.o(i.SystemCoreClockUpdate), (192 bytes).
    Removing system_stm32f4xx.o(.data), (20 bytes).
    Removing misc.o(.rev16_text), (4 bytes).
    Removing misc.o(.revsh_text), (4 bytes).
    Removing misc.o(.rrx_text), (6 bytes).
    Removing misc.o(i.NVIC_SetVectorTable), (20 bytes).
    Removing misc.o(i.NVIC_SystemLPConfig), (32 bytes).
    Removing misc.o(i.SysTick_CLKSourceConfig), (40 bytes).
    Removing stm32f4xx_exti.o(.rev16_text), (4 bytes).
    Removing stm32f4xx_exti.o(.revsh_text), (4 bytes).
    Removing stm32f4xx_exti.o(.rrx_text), (6 bytes).
    Removing stm32f4xx_exti.o(i.EXTI_ClearFlag), (12 bytes).
    Removing stm32f4xx_exti.o(i.EXTI_ClearITPendingBit), (12 bytes).
    Removing stm32f4xx_exti.o(i.EXTI_DeInit), (36 bytes).
    Removing stm32f4xx_exti.o(i.EXTI_GenerateSWInterrupt), (16 bytes).
    Removing stm32f4xx_exti.o(i.EXTI_GetFlagStatus), (24 bytes).
    Removing stm32f4xx_exti.o(i.EXTI_GetITStatus), (24 bytes).
    Removing stm32f4xx_exti.o(i.EXTI_Init), (148 bytes).
    Removing stm32f4xx_exti.o(i.EXTI_StructInit), (16 bytes).
    Removing stm32f4xx_gpio.o(.rev16_text), (4 bytes).
    Removing stm32f4xx_gpio.o(.revsh_text), (4 bytes).
    Removing stm32f4xx_gpio.o(.rrx_text), (6 bytes).
    Removing stm32f4xx_gpio.o(i.GPIO_DeInit), (312 bytes).
    Removing stm32f4xx_gpio.o(i.GPIO_PinLockConfig), (34 bytes).
    Removing stm32f4xx_gpio.o(i.GPIO_ReadInputData), (8 bytes).
    Removing stm32f4xx_gpio.o(i.GPIO_ReadInputDataBit), (18 bytes).
    Removing stm32f4xx_gpio.o(i.GPIO_ReadOutputData), (8 bytes).
    Removing stm32f4xx_gpio.o(i.GPIO_ReadOutputDataBit), (18 bytes).
    Removing stm32f4xx_gpio.o(i.GPIO_StructInit), (18 bytes).
    Removing stm32f4xx_gpio.o(i.GPIO_ToggleBits), (8 bytes).
    Removing stm32f4xx_gpio.o(i.GPIO_Write), (4 bytes).
    Removing stm32f4xx_gpio.o(i.GPIO_WriteBit), (10 bytes).
    Removing stm32f4xx_pwr.o(.rev16_text), (4 bytes).
    Removing stm32f4xx_pwr.o(.revsh_text), (4 bytes).
    Removing stm32f4xx_pwr.o(.rrx_text), (6 bytes).
    Removing stm32f4xx_pwr.o(i.PWR_BackupRegulatorCmd), (12 bytes).
    Removing stm32f4xx_pwr.o(i.PWR_ClearFlag), (20 bytes).
    Removing stm32f4xx_pwr.o(i.PWR_DeInit), (22 bytes).
    Removing stm32f4xx_pwr.o(i.PWR_EnterSTANDBYMode), (40 bytes).
    Removing stm32f4xx_pwr.o(i.PWR_EnterSTOPMode), (68 bytes).
    Removing stm32f4xx_pwr.o(i.PWR_EnterUnderDriveSTOPMode), (68 bytes).
    Removing stm32f4xx_pwr.o(i.PWR_FlashPowerDownCmd), (12 bytes).
    Removing stm32f4xx_pwr.o(i.PWR_GetFlagStatus), (24 bytes).
    Removing stm32f4xx_pwr.o(i.PWR_MainRegulatorModeConfig), (24 bytes).
    Removing stm32f4xx_pwr.o(i.PWR_OverDriveCmd), (12 bytes).
    Removing stm32f4xx_pwr.o(i.PWR_OverDriveSWCmd), (12 bytes).
    Removing stm32f4xx_pwr.o(i.PWR_PVDCmd), (12 bytes).
    Removing stm32f4xx_pwr.o(i.PWR_PVDLevelConfig), (24 bytes).
    Removing stm32f4xx_pwr.o(i.PWR_UnderDriveCmd), (36 bytes).
    Removing stm32f4xx_pwr.o(i.PWR_WakeUpPinCmd), (12 bytes).
    Removing stm32f4xx_rcc.o(.rev16_text), (4 bytes).
    Removing stm32f4xx_rcc.o(.revsh_text), (4 bytes).
    Removing stm32f4xx_rcc.o(.rrx_text), (6 bytes).
    Removing stm32f4xx_rcc.o(i.RCC_AHB1PeriphClockLPModeCmd), (32 bytes).
    Removing stm32f4xx_rcc.o(i.RCC_AHB1PeriphResetCmd), (32 bytes).
    Removing stm32f4xx_rcc.o(i.RCC_AHB2PeriphClockCmd), (32 bytes).
    Removing stm32f4xx_rcc.o(i.RCC_AHB2PeriphClockLPModeCmd), (32 bytes).
    Removing stm32f4xx_rcc.o(i.RCC_AHB2PeriphResetCmd), (32 bytes).
    Removing stm32f4xx_rcc.o(i.RCC_AHB3PeriphClockLPModeCmd), (32 bytes).
    Removing stm32f4xx_rcc.o(i.RCC_AHB3PeriphResetCmd), (32 bytes).
    Removing stm32f4xx_rcc.o(i.RCC_APB1PeriphClockLPModeCmd), (32 bytes).
    Removing stm32f4xx_rcc.o(i.RCC_APB1PeriphResetCmd), (32 bytes).
    Removing stm32f4xx_rcc.o(i.RCC_APB2PeriphClockLPModeCmd), (32 bytes).
    Removing stm32f4xx_rcc.o(i.RCC_APB2PeriphResetCmd), (32 bytes).
    Removing stm32f4xx_rcc.o(i.RCC_AdjustHSICalibrationValue), (24 bytes).
    Removing stm32f4xx_rcc.o(i.RCC_BackupResetCmd), (12 bytes).
    Removing stm32f4xx_rcc.o(i.RCC_ClearFlag), (20 bytes).
    Removing stm32f4xx_rcc.o(i.RCC_ClearITPendingBit), (12 bytes).
    Removing stm32f4xx_rcc.o(i.RCC_ClockSecuritySystemCmd), (12 bytes).
    Removing stm32f4xx_rcc.o(i.RCC_DeInit), (100 bytes).
    Removing stm32f4xx_rcc.o(i.RCC_GetITStatus), (24 bytes).
    Removing stm32f4xx_rcc.o(i.RCC_GetSYSCLKSource), (16 bytes).
    Removing stm32f4xx_rcc.o(i.RCC_HCLKConfig), (24 bytes).
    Removing stm32f4xx_rcc.o(i.RCC_HSEConfig), (16 bytes).
    Removing stm32f4xx_rcc.o(i.RCC_HSICmd), (12 bytes).
    Removing stm32f4xx_rcc.o(i.RCC_I2SCLKConfig), (12 bytes).
    Removing stm32f4xx_rcc.o(i.RCC_ITConfig), (32 bytes).
    Removing stm32f4xx_rcc.o(i.RCC_LSEModeConfig), (36 bytes).
    Removing stm32f4xx_rcc.o(i.RCC_LSICmd), (12 bytes).
    Removing stm32f4xx_rcc.o(i.RCC_LTDCCLKDivConfig), (24 bytes).
    Removing stm32f4xx_rcc.o(i.RCC_MCO1Config), (28 bytes).
    Removing stm32f4xx_rcc.o(i.RCC_MCO2Config), (28 bytes).
    Removing stm32f4xx_rcc.o(i.RCC_PCLK1Config), (24 bytes).
    Removing stm32f4xx_rcc.o(i.RCC_PCLK2Config), (24 bytes).
    Removing stm32f4xx_rcc.o(i.RCC_PLLCmd), (12 bytes).
    Removing stm32f4xx_rcc.o(i.RCC_PLLConfig), (36 bytes).
    Removing stm32f4xx_rcc.o(i.RCC_PLLI2SCmd), (12 bytes).
    Removing stm32f4xx_rcc.o(i.RCC_PLLI2SConfig), (16 bytes).
    Removing stm32f4xx_rcc.o(i.RCC_PLLSAICmd), (12 bytes).
    Removing stm32f4xx_rcc.o(i.RCC_PLLSAIConfig), (24 bytes).
    Removing stm32f4xx_rcc.o(i.RCC_SAIBlockACLKConfig), (24 bytes).
    Removing stm32f4xx_rcc.o(i.RCC_SAIBlockBCLKConfig), (24 bytes).
    Removing stm32f4xx_rcc.o(i.RCC_SAIPLLI2SClkDivConfig), (28 bytes).
    Removing stm32f4xx_rcc.o(i.RCC_SAIPLLSAIClkDivConfig), (28 bytes).
    Removing stm32f4xx_rcc.o(i.RCC_SYSCLKConfig), (24 bytes).
    Removing stm32f4xx_rcc.o(i.RCC_TIMCLKPresConfig), (12 bytes).
    Removing stm32f4xx_rcc.o(i.RCC_WaitForHSEStartUp), (56 bytes).
    Removing stm32f4xx_usart.o(.rev16_text), (4 bytes).
    Removing stm32f4xx_usart.o(.revsh_text), (4 bytes).
    Removing stm32f4xx_usart.o(.rrx_text), (6 bytes).
    Removing stm32f4xx_usart.o(i.USART_ClearFlag), (18 bytes).
    Removing stm32f4xx_usart.o(i.USART_ClearITPendingBit), (30 bytes).
    Removing stm32f4xx_usart.o(i.USART_ClockInit), (32 bytes).
    Removing stm32f4xx_usart.o(i.USART_ClockStructInit), (12 bytes).
    Removing stm32f4xx_usart.o(i.USART_DeInit), (240 bytes).
    Removing stm32f4xx_usart.o(i.USART_GetFlagStatus), (26 bytes).
    Removing stm32f4xx_usart.o(i.USART_HalfDuplexCmd), (24 bytes).
    Removing stm32f4xx_usart.o(i.USART_IrDACmd), (24 bytes).
    Removing stm32f4xx_usart.o(i.USART_IrDAConfig), (18 bytes).
    Removing stm32f4xx_usart.o(i.USART_LINBreakDetectLengthConfig), (18 bytes).
    Removing stm32f4xx_usart.o(i.USART_LINCmd), (24 bytes).
    Removing stm32f4xx_usart.o(i.USART_OneBitMethodCmd), (24 bytes).
    Removing stm32f4xx_usart.o(i.USART_OverSampling8Cmd), (22 bytes).
    Removing stm32f4xx_usart.o(i.USART_ReceiverWakeUpCmd), (24 bytes).
    Removing stm32f4xx_usart.o(i.USART_SendBreak), (10 bytes).
    Removing stm32f4xx_usart.o(i.USART_SendData), (8 bytes).
    Removing stm32f4xx_usart.o(i.USART_SetAddress), (18 bytes).
    Removing stm32f4xx_usart.o(i.USART_SetGuardTime), (16 bytes).
    Removing stm32f4xx_usart.o(i.USART_SetPrescaler), (16 bytes).
    Removing stm32f4xx_usart.o(i.USART_SmartCardCmd), (24 bytes).
    Removing stm32f4xx_usart.o(i.USART_SmartCardNACKCmd), (24 bytes).
    Removing stm32f4xx_usart.o(i.USART_StructInit), (24 bytes).
    Removing stm32f4xx_usart.o(i.USART_WakeUpConfig), (18 bytes).
    Removing stm32f4xx_flash.o(.rev16_text), (4 bytes).
    Removing stm32f4xx_flash.o(.revsh_text), (4 bytes).
    Removing stm32f4xx_flash.o(.rrx_text), (6 bytes).
    Removing stm32f4xx_flash.o(i.FLASH_ClearFlag), (12 bytes).
    Removing stm32f4xx_flash.o(i.FLASH_DataCacheCmd), (36 bytes).
    Removing stm32f4xx_flash.o(i.FLASH_DataCacheReset), (20 bytes).
    Removing stm32f4xx_flash.o(i.FLASH_EraseAllBank1Sectors), (108 bytes).
    Removing stm32f4xx_flash.o(i.FLASH_EraseAllBank2Sectors), (108 bytes).
    Removing stm32f4xx_flash.o(i.FLASH_EraseAllSectors), (108 bytes).
    Removing stm32f4xx_flash.o(i.FLASH_EraseSector), (136 bytes).
    Removing stm32f4xx_flash.o(i.FLASH_GetFlagStatus), (24 bytes).
    Removing stm32f4xx_flash.o(i.FLASH_GetStatus), (84 bytes).
    Removing stm32f4xx_flash.o(i.FLASH_ITConfig), (32 bytes).
    Removing stm32f4xx_flash.o(i.FLASH_InstructionCacheCmd), (36 bytes).
    Removing stm32f4xx_flash.o(i.FLASH_InstructionCacheReset), (20 bytes).
    Removing stm32f4xx_flash.o(i.FLASH_Lock), (20 bytes).
    Removing stm32f4xx_flash.o(i.FLASH_OB_BORConfig), (28 bytes).
    Removing stm32f4xx_flash.o(i.FLASH_OB_BootConfig), (28 bytes).
    Removing stm32f4xx_flash.o(i.FLASH_OB_GetBOR), (16 bytes).
    Removing stm32f4xx_flash.o(i.FLASH_OB_GetPCROP), (12 bytes).
    Removing stm32f4xx_flash.o(i.FLASH_OB_GetPCROP1), (12 bytes).
    Removing stm32f4xx_flash.o(i.FLASH_OB_GetRDP), (24 bytes).
    Removing stm32f4xx_flash.o(i.FLASH_OB_GetUser), (16 bytes).
    Removing stm32f4xx_flash.o(i.FLASH_OB_GetWRP), (12 bytes).
    Removing stm32f4xx_flash.o(i.FLASH_OB_GetWRP1), (12 bytes).
    Removing stm32f4xx_flash.o(i.FLASH_OB_Launch), (32 bytes).
    Removing stm32f4xx_flash.o(i.FLASH_OB_Lock), (20 bytes).
    Removing stm32f4xx_flash.o(i.FLASH_OB_PCROP1Config), (52 bytes).
    Removing stm32f4xx_flash.o(i.FLASH_OB_PCROPConfig), (52 bytes).
    Removing stm32f4xx_flash.o(i.FLASH_OB_PCROPSelectionConfig), (24 bytes).
    Removing stm32f4xx_flash.o(i.FLASH_OB_RDPConfig), (28 bytes).
    Removing stm32f4xx_flash.o(i.FLASH_OB_Unlock), (36 bytes).
    Removing stm32f4xx_flash.o(i.FLASH_OB_UserConfig), (48 bytes).
    Removing stm32f4xx_flash.o(i.FLASH_OB_WRP1Config), (52 bytes).
    Removing stm32f4xx_flash.o(i.FLASH_OB_WRPConfig), (52 bytes).
    Removing stm32f4xx_flash.o(i.FLASH_PrefetchBufferCmd), (36 bytes).
    Removing stm32f4xx_flash.o(i.FLASH_ProgramByte), (76 bytes).
    Removing stm32f4xx_flash.o(i.FLASH_ProgramDoubleWord), (84 bytes).
    Removing stm32f4xx_flash.o(i.FLASH_ProgramHalfWord), (80 bytes).
    Removing stm32f4xx_flash.o(i.FLASH_ProgramWord), (80 bytes).
    Removing stm32f4xx_flash.o(i.FLASH_SetLatency), (12 bytes).
    Removing stm32f4xx_flash.o(i.FLASH_Unlock), (36 bytes).
    Removing stm32f4xx_flash.o(i.FLASH_WaitForLastOperation), (34 bytes).
    Removing stm32f4xx_fsmc.o(.rev16_text), (4 bytes).
    Removing stm32f4xx_fsmc.o(.revsh_text), (4 bytes).
    Removing stm32f4xx_fsmc.o(.rrx_text), (6 bytes).
    Removing stm32f4xx_fsmc.o(i.FSMC_ClearFlag), (64 bytes).
    Removing stm32f4xx_fsmc.o(i.FSMC_ClearITPendingBit), (72 bytes).
    Removing stm32f4xx_fsmc.o(i.FSMC_GetECC), (28 bytes).
    Removing stm32f4xx_fsmc.o(i.FSMC_GetFlagStatus), (56 bytes).
    Removing stm32f4xx_fsmc.o(i.FSMC_GetITStatus), (68 bytes).
    Removing stm32f4xx_fsmc.o(i.FSMC_ITConfig), (128 bytes).
    Removing stm32f4xx_fsmc.o(i.FSMC_NANDCmd), (92 bytes).
    Removing stm32f4xx_fsmc.o(i.FSMC_NANDDeInit), (68 bytes).
    Removing stm32f4xx_fsmc.o(i.FSMC_NANDECCCmd), (92 bytes).
    Removing stm32f4xx_fsmc.o(i.FSMC_NANDInit), (212 bytes).
    Removing stm32f4xx_fsmc.o(i.FSMC_NANDStructInit), (54 bytes).
    Removing stm32f4xx_fsmc.o(i.FSMC_NORSRAMDeInit), (54 bytes).
    Removing stm32f4xx_fsmc.o(i.FSMC_NORSRAMStructInit), (52 bytes).
    Removing stm32f4xx_fsmc.o(i.FSMC_PCCARDCmd), (48 bytes).
    Removing stm32f4xx_fsmc.o(i.FSMC_PCCARDDeInit), (40 bytes).
    Removing stm32f4xx_fsmc.o(i.FSMC_PCCARDInit), (196 bytes).
    Removing stm32f4xx_fsmc.o(i.FSMC_PCCARDStructInit), (60 bytes).
    Removing stm32f4xx_fsmc.o(.constdata), (28 bytes).
    Removing stm32f4xx_rtc.o(.rev16_text), (4 bytes).
    Removing stm32f4xx_rtc.o(.revsh_text), (4 bytes).
    Removing stm32f4xx_rtc.o(.rrx_text), (6 bytes).
    Removing stm32f4xx_rtc.o(i.RTC_AlarmCmd), (116 bytes).
    Removing stm32f4xx_rtc.o(i.RTC_AlarmStructInit), (22 bytes).
    Removing stm32f4xx_rtc.o(i.RTC_AlarmSubSecondConfig), (52 bytes).
    Removing stm32f4xx_rtc.o(i.RTC_BypassShadowCmd), (60 bytes).
    Removing stm32f4xx_rtc.o(i.RTC_CalibOutputCmd), (60 bytes).
    Removing stm32f4xx_rtc.o(i.RTC_CalibOutputConfig), (48 bytes).
    Removing stm32f4xx_rtc.o(i.RTC_ClearFlag), (28 bytes).
    Removing stm32f4xx_rtc.o(i.RTC_ClearITPendingBit), (32 bytes).
    Removing stm32f4xx_rtc.o(i.RTC_CoarseCalibCmd), (80 bytes).
    Removing stm32f4xx_rtc.o(i.RTC_CoarseCalibConfig), (56 bytes).
    Removing stm32f4xx_rtc.o(i.RTC_DateStructInit), (14 bytes).
    Removing stm32f4xx_rtc.o(i.RTC_DayLightSavingConfig), (56 bytes).
    Removing stm32f4xx_rtc.o(i.RTC_DeInit), (212 bytes).
    Removing stm32f4xx_rtc.o(i.RTC_GetAlarm), (116 bytes).
    Removing stm32f4xx_rtc.o(i.RTC_GetAlarmSubSecond), (36 bytes).
    Removing stm32f4xx_rtc.o(i.RTC_GetFlagStatus), (40 bytes).
    Removing stm32f4xx_rtc.o(i.RTC_GetITStatus), (64 bytes).
    Removing stm32f4xx_rtc.o(i.RTC_GetStoreOperation), (16 bytes).
    Removing stm32f4xx_rtc.o(i.RTC_GetSubSecond), (20 bytes).
    Removing stm32f4xx_rtc.o(i.RTC_GetTimeStamp), (156 bytes).
    Removing stm32f4xx_rtc.o(i.RTC_GetTimeStampSubSecond), (12 bytes).
    Removing stm32f4xx_rtc.o(i.RTC_GetWakeUpCounter), (12 bytes).
    Removing stm32f4xx_rtc.o(i.RTC_ITConfig), (100 bytes).
    Removing stm32f4xx_rtc.o(i.RTC_OutputConfig), (56 bytes).
    Removing stm32f4xx_rtc.o(i.RTC_OutputTypeConfig), (28 bytes).
    Removing stm32f4xx_rtc.o(i.RTC_RefClockCmd), (80 bytes).
    Removing stm32f4xx_rtc.o(i.RTC_SetAlarm), (236 bytes).
    Removing stm32f4xx_rtc.o(i.RTC_SetWakeUpCounter), (28 bytes).
    Removing stm32f4xx_rtc.o(i.RTC_SmoothCalibConfig), (96 bytes).
    Removing stm32f4xx_rtc.o(i.RTC_StructInit), (14 bytes).
    Removing stm32f4xx_rtc.o(i.RTC_SynchroShiftConfig), (124 bytes).
    Removing stm32f4xx_rtc.o(i.RTC_TamperCmd), (32 bytes).
    Removing stm32f4xx_rtc.o(i.RTC_TamperFilterConfig), (28 bytes).
    Removing stm32f4xx_rtc.o(i.RTC_TamperPinSelection), (28 bytes).
    Removing stm32f4xx_rtc.o(i.RTC_TamperPinsPrechargeDuration), (28 bytes).
    Removing stm32f4xx_rtc.o(i.RTC_TamperPullUpCmd), (36 bytes).
    Removing stm32f4xx_rtc.o(i.RTC_TamperSamplingFreqConfig), (28 bytes).
    Removing stm32f4xx_rtc.o(i.RTC_TamperTriggerConfig), (36 bytes).
    Removing stm32f4xx_rtc.o(i.RTC_TimeStampCmd), (56 bytes).
    Removing stm32f4xx_rtc.o(i.RTC_TimeStampOnTamperDetectionCmd), (36 bytes).
    Removing stm32f4xx_rtc.o(i.RTC_TimeStampPinSelection), (28 bytes).
    Removing stm32f4xx_rtc.o(i.RTC_TimeStructInit), (12 bytes).
    Removing stm32f4xx_rtc.o(i.RTC_WakeUpClockConfig), (48 bytes).
    Removing stm32f4xx_rtc.o(i.RTC_WakeUpCmd), (120 bytes).
    Removing stm32f4xx_rtc.o(i.RTC_WriteProtectionCmd), (28 bytes).
    Removing stm32f4xx_dma.o(.rev16_text), (4 bytes).
    Removing stm32f4xx_dma.o(.revsh_text), (4 bytes).
    Removing stm32f4xx_dma.o(.rrx_text), (6 bytes).
    Removing stm32f4xx_dma.o(i.DMA_ClearITPendingBit), (52 bytes).
    Removing stm32f4xx_dma.o(i.DMA_DoubleBufferModeCmd), (22 bytes).
    Removing stm32f4xx_dma.o(i.DMA_DoubleBufferModeConfig), (24 bytes).
    Removing stm32f4xx_dma.o(i.DMA_FlowControllerConfig), (22 bytes).
    Removing stm32f4xx_dma.o(i.DMA_GetCurrDataCounter), (8 bytes).
    Removing stm32f4xx_dma.o(i.DMA_GetCurrentMemoryTarget), (20 bytes).
    Removing stm32f4xx_dma.o(i.DMA_GetFIFOStatus), (12 bytes).
    Removing stm32f4xx_dma.o(i.DMA_GetITStatus), (100 bytes).
    Removing stm32f4xx_dma.o(i.DMA_MemoryTargetConfig), (10 bytes).
    Removing stm32f4xx_dma.o(i.DMA_PeriphIncOffsetSizeConfig), (22 bytes).
    Removing stm32f4xx_dma.o(i.DMA_StructInit), (34 bytes).
    Removing freertos_hook.o(.rev16_text), (4 bytes).
    Removing freertos_hook.o(.revsh_text), (4 bytes).
    Removing freertos_hook.o(.rrx_text), (6 bytes).
    Removing ballast_comm.o(.rev16_text), (4 bytes).
    Removing ballast_comm.o(.revsh_text), (4 bytes).
    Removing ballast_comm.o(.rrx_text), (6 bytes).
    Removing ballast_comm.o(i.BallastComm1DMA_TxBuff), (96 bytes).
    Removing electric.o(.rev16_text), (4 bytes).
    Removing electric.o(.revsh_text), (4 bytes).
    Removing electric.o(.rrx_text), (6 bytes).
    Removing electric.o(i.EleDMA_TxBuff), (96 bytes).
    Removing gsm.o(.rev16_text), (4 bytes).
    Removing gsm.o(.revsh_text), (4 bytes).
    Removing gsm.o(.rrx_text), (6 bytes).
    Removing main.o(.rev16_text), (4 bytes).
    Removing main.o(.revsh_text), (4 bytes).
    Removing main.o(.rrx_text), (6 bytes).
    Removing time_plan.o(.rev16_text), (4 bytes).
    Removing time_plan.o(.revsh_text), (4 bytes).
    Removing time_plan.o(.rrx_text), (6 bytes).
    Removing time_plan.o(i.TimePlanInit), (52 bytes).
    Removing time_plan.o(i.vTimePlanTask), (4 bytes).
    Removing sys_debug.o(.rev16_text), (4 bytes).
    Removing sys_debug.o(.revsh_text), (4 bytes).
    Removing sys_debug.o(.rrx_text), (6 bytes).
    Removing sys_debug.o(i.printf_data), (2 bytes).
    Removing gateway_protocol.o(.rev16_text), (4 bytes).
    Removing gateway_protocol.o(.revsh_text), (4 bytes).
    Removing gateway_protocol.o(.rrx_text), (6 bytes).
    Removing ballast_protocol.o(.rev16_text), (4 bytes).
    Removing ballast_protocol.o(.revsh_text), (4 bytes).
    Removing ballast_protocol.o(.rrx_text), (6 bytes).
    Removing ballast_protocol.o(.bss), (4000 bytes).
    Removing common.o(.rev16_text), (4 bytes).
    Removing common.o(.revsh_text), (4 bytes).
    Removing common.o(.rrx_text), (6 bytes).
    Removing common.o(i.ByteToBcd2), (28 bytes).
    Removing km_ctrl.o(.rev16_text), (4 bytes).
    Removing km_ctrl.o(.revsh_text), (4 bytes).
    Removing km_ctrl.o(.rrx_text), (6 bytes).
    Removing lat_longitude.o(.rev16_text), (4 bytes).
    Removing lat_longitude.o(.revsh_text), (4 bytes).
    Removing lat_longitude.o(.rrx_text), (6 bytes).
    Removing port.o(i.vPortEndScheduler), (2 bytes).
    Removing heap_2.o(i.vPortInitialiseBlocks), (2 bytes).
    Removing heap_2.o(i.xPortGetFreeHeapSize), (12 bytes).
    Removing queue.o(i.uxQueueMessagesWaiting), (18 bytes).
    Removing queue.o(i.uxQueueMessagesWaitingFromISR), (6 bytes).
    Removing queue.o(i.uxQueueSpacesAvailable), (24 bytes).
    Removing queue.o(i.vQueueDelete), (14 bytes).
    Removing queue.o(i.xQueueIsQueueEmptyFromISR), (14 bytes).
    Removing queue.o(i.xQueueIsQueueFullFromISR), (18 bytes).
    Removing queue.o(i.xQueuePeekFromISR), (74 bytes).
    Removing queue.o(i.xQueueReceiveFromISR), (116 bytes).
    Removing tasks.o(i.prvTaskIsTaskSuspended), (64 bytes).
    Removing tasks.o(i.ulTaskNotifyTake), (196 bytes).
    Removing tasks.o(i.uxTaskGetNumberOfTasks), (12 bytes).
    Removing tasks.o(i.uxTaskPriorityGet), (36 bytes).
    Removing tasks.o(i.uxTaskPriorityGetFromISR), (56 bytes).
    Removing tasks.o(i.uxTaskResetEventItemValue), (28 bytes).
    Removing tasks.o(i.vTaskDelayUntil), (156 bytes).
    Removing tasks.o(i.vTaskDelete), (184 bytes).
    Removing tasks.o(i.vTaskEndScheduler), (36 bytes).
    Removing tasks.o(i.vTaskNotifyGiveFromISR), (168 bytes).
    Removing tasks.o(i.vTaskPlaceOnUnorderedEventList), (116 bytes).
    Removing tasks.o(i.vTaskPrioritySet), (244 bytes).
    Removing tasks.o(i.vTaskResume), (124 bytes).
    Removing tasks.o(i.vTaskSuspend), (192 bytes).
    Removing tasks.o(i.xTaskGenericNotify), (196 bytes).
    Removing tasks.o(i.xTaskGenericNotifyFromISR), (240 bytes).
    Removing tasks.o(i.xTaskGetTickCountFromISR), (12 bytes).
    Removing tasks.o(i.xTaskNotifyStateClear), (56 bytes).
    Removing tasks.o(i.xTaskNotifyWait), (228 bytes).
    Removing tasks.o(i.xTaskRemoveFromUnorderedEventList), (112 bytes).
    Removing tasks.o(i.xTaskResumeFromISR), (152 bytes).
    Removing rtc.o(.rev16_text), (4 bytes).
    Removing rtc.o(.revsh_text), (4 bytes).
    Removing rtc.o(.rrx_text), (6 bytes).
    Removing fsmc_nor.o(.rev16_text), (4 bytes).
    Removing fsmc_nor.o(.revsh_text), (4 bytes).
    Removing fsmc_nor.o(.rrx_text), (6 bytes).
    Removing fsmc_nor.o(i.FSMC_NOR_EraseBlock), (56 bytes).
    Removing fsmc_nor.o(i.FSMC_NOR_EraseChip), (56 bytes).
    Removing fsmc_nor.o(i.FSMC_NOR_ReadHalfWord), (36 bytes).
    Removing fsmc_nor.o(i.FSMC_NOR_ReadID), (68 bytes).
    Removing fsmc_nor.o(i.FSMC_NOR_Reset), (32 bytes).
    Removing fsmc_nor.o(i.FSMC_NOR_ReturnToReadMode), (12 bytes).
    Removing norflash.o(.rev16_text), (4 bytes).
    Removing norflash.o(.revsh_text), (4 bytes).
    Removing norflash.o(.rrx_text), (6 bytes).
    Removing norflash.o(i.NorFlashEraseChip), (92 bytes).
    Removing norflash.o(i.NorFlashEraseSector), (100 bytes).
    Removing uart_debug.o(.rev16_text), (4 bytes).
    Removing uart_debug.o(.revsh_text), (4 bytes).
    Removing uart_debug.o(.rrx_text), (6 bytes).

350 unused section(s) (total 17394 bytes) removed from the image.

==============================================================================

Image Symbol Table

    Local Symbols

    Symbol Name                              Value     Ov Type        Size  Object(Section)

    ../clib/angel/boardlib.s                 0x00000000   Number         0  boardinit1.o ABSOLUTE
    ../clib/angel/boardlib.s                 0x00000000   Number         0  boardinit2.o ABSOLUTE
    ../clib/angel/boardlib.s                 0x00000000   Number         0  boardshut.o ABSOLUTE
    ../clib/angel/boardlib.s                 0x00000000   Number         0  boardinit3.o ABSOLUTE
    ../clib/angel/dczerorl2.s                0x00000000   Number         0  __dczerorl2.o ABSOLUTE
    ../clib/angel/handlers.s                 0x00000000   Number         0  __scatter_zi.o ABSOLUTE
    ../clib/angel/kernel.s                   0x00000000   Number         0  __rtentry2.o ABSOLUTE
    ../clib/angel/kernel.s                   0x00000000   Number         0  rtexit2.o ABSOLUTE
    ../clib/angel/kernel.s                   0x00000000   Number         0  __rtentry4.o ABSOLUTE
    ../clib/angel/kernel.s                   0x00000000   Number         0  rtexit.o ABSOLUTE
    ../clib/angel/kernel.s                   0x00000000   Number         0  __rtentry.o ABSOLUTE
    ../clib/angel/rt.s                       0x00000000   Number         0  rt_locale.o ABSOLUTE
    ../clib/angel/rt.s                       0x00000000   Number         0  rt_locale_intlibspace.o ABSOLUTE
    ../clib/angel/rt.s                       0x00000000   Number         0  rt_raise.o ABSOLUTE
    ../clib/angel/rt.s                       0x00000000   Number         0  rt_errno_addr.o ABSOLUTE
    ../clib/angel/rt.s                       0x00000000   Number         0  rt_errno_addr_intlibspace.o ABSOLUTE
    ../clib/angel/rt.s                       0x00000000   Number         0  rt_ctype_table.o ABSOLUTE
    ../clib/angel/scatter.s                  0x00000000   Number         0  __scatter.o ABSOLUTE
    ../clib/angel/startup.s                  0x00000000   Number         0  __main.o ABSOLUTE
    ../clib/angel/sys.s                      0x00000000   Number         0  libspace.o ABSOLUTE
    ../clib/angel/sys.s                      0x00000000   Number         0  use_no_semi.o ABSOLUTE
    ../clib/angel/sys.s                      0x00000000   Number         0  sys_stackheap_outer.o ABSOLUTE
    ../clib/angel/sys.s                      0x00000000   Number         0  use_no_semi_2.o ABSOLUTE
    ../clib/angel/sys.s                      0x00000000   Number         0  indicate_semi.o ABSOLUTE
    ../clib/angel/sysapp.c                   0x00000000   Number         0  sys_command.o ABSOLUTE
    ../clib/angel/sysapp.c                   0x00000000   Number         0  sys_wrch.o ABSOLUTE
    ../clib/armsys.c                         0x00000000   Number         0  argv_veneer.o ABSOLUTE
    ../clib/armsys.c                         0x00000000   Number         0  argv_veneer.o ABSOLUTE
    ../clib/armsys.c                         0x00000000   Number         0  no_argv.o ABSOLUTE
    ../clib/armsys.c                         0x00000000   Number         0  _get_argv_nomalloc.o ABSOLUTE
    ../clib/ctype.c                          0x00000000   Number         0  isspace.o ABSOLUTE
    ../clib/fenv.c                           0x00000000   Number         0  _rserrno.o ABSOLUTE
    ../clib/heapalloc.c                      0x00000000   Number         0  hrguard.o ABSOLUTE
    ../clib/heapaux.c                        0x00000000   Number         0  heapauxi.o ABSOLUTE
    ../clib/libinit.s                        0x00000000   Number         0  libinit2.o ABSOLUTE
    ../clib/libinit.s                        0x00000000   Number         0  libshutdown.o ABSOLUTE
    ../clib/libinit.s                        0x00000000   Number         0  libshutdown2.o ABSOLUTE
    ../clib/libinit.s                        0x00000000   Number         0  libinit.o ABSOLUTE
    ../clib/locale.s                         0x00000000   Number         0  lc_ctype_c.o ABSOLUTE
    ../clib/memcpset.s                       0x00000000   Number         0  strncpy.o ABSOLUTE
    ../clib/memcpset.s                       0x00000000   Number         0  strcmpv7m.o ABSOLUTE
    ../clib/memcpset.s                       0x00000000   Number         0  aeabi_memset.o ABSOLUTE
    ../clib/memcpset.s                       0x00000000   Number         0  rt_memcpy_v6.o ABSOLUTE
    ../clib/memcpset.s                       0x00000000   Number         0  rt_memclr.o ABSOLUTE
    ../clib/memcpset.s                       0x00000000   Number         0  rt_memcpy_w.o ABSOLUTE
    ../clib/memcpset.s                       0x00000000   Number         0  rt_memclr_w.o ABSOLUTE
    ../clib/misc.s                           0x00000000   Number         0  printf_stubs.o ABSOLUTE
    ../clib/printf.c                         0x00000000   Number         0  __printf.o ABSOLUTE
    ../clib/printf.c                         0x00000000   Number         0  __printf_flags.o ABSOLUTE
    ../clib/printf.c                         0x00000000   Number         0  __printf_ss.o ABSOLUTE
    ../clib/printf.c                         0x00000000   Number         0  __printf_flags_ss.o ABSOLUTE
    ../clib/printf.c                         0x00000000   Number         0  _printf_char_file.o ABSOLUTE
    ../clib/printf.c                         0x00000000   Number         0  _printf_char.o ABSOLUTE
    ../clib/printf.c                         0x00000000   Number         0  _sputc.o ABSOLUTE
    ../clib/printf.c                         0x00000000   Number         0  __printf_wp.o ABSOLUTE
    ../clib/printf.c                         0x00000000   Number         0  __printf_flags_wp.o ABSOLUTE
    ../clib/printf.c                         0x00000000   Number         0  _printf_char_common.o ABSOLUTE
    ../clib/printf.c                         0x00000000   Number         0  __printf_ss_wp.o ABSOLUTE
    ../clib/printf.c                         0x00000000   Number         0  __printf_flags_ss_wp.o ABSOLUTE
    ../clib/printf.c                         0x00000000   Number         0  __printf_nopercent.o ABSOLUTE
    ../clib/printf.c                         0x00000000   Number         0  noretval__2printf.o ABSOLUTE
    ../clib/printf.c                         0x00000000   Number         0  __2sprintf.o ABSOLUTE
    ../clib/printf.c                         0x00000000   Number         0  __2printf.o ABSOLUTE
    ../clib/printf.c                         0x00000000   Number         0  noretval__2sprintf.o ABSOLUTE
    ../clib/printf.c                         0x00000000   Number         0  _printf_str.o ABSOLUTE
    ../clib/printf_percent.s                 0x00000000   Number         0  _printf_percent_end.o ABSOLUTE
    ../clib/printf_percent.s                 0x00000000   Number         0  _printf_s.o ABSOLUTE
    ../clib/printf_percent.s                 0x00000000   Number         0  _printf_percent.o ABSOLUTE
    ../clib/scanf.c                          0x00000000   Number         0  _sgetc.o ABSOLUTE
    ../clib/scanf.c                          0x00000000   Number         0  _scanf.o ABSOLUTE
    ../clib/scanf.c                          0x00000000   Number         0  scanf_char.o ABSOLUTE
    ../clib/scanf.c                          0x00000000   Number         0  _chval.o ABSOLUTE
    ../clib/scanf.c                          0x00000000   Number         0  __0sscanf.o ABSOLUTE
    ../clib/scanf.c                          0x00000000   Number         0  _scanf_int.o ABSOLUTE
    ../clib/scanf.c                          0x00000000   Number         0  _scanf_str.o ABSOLUTE
    ../clib/signal.c                         0x00000000   Number         0  defsig_rtred_inner.o ABSOLUTE
    ../clib/signal.c                         0x00000000   Number         0  defsig_abrt_inner.o ABSOLUTE
    ../clib/signal.c                         0x00000000   Number         0  defsig_general.o ABSOLUTE
    ../clib/signal.c                         0x00000000   Number         0  defsig_rtmem_inner.o ABSOLUTE
    ../clib/signal.c                         0x00000000   Number         0  defsig_exit.o ABSOLUTE
    ../clib/signal.c                         0x00000000   Number         0  defsig_rtmem_outer.o ABSOLUTE
    ../clib/signal.c                         0x00000000   Number         0  defsig_fpe_inner.o ABSOLUTE
    ../clib/signal.c                         0x00000000   Number         0  defsig_rtmem_formal.o ABSOLUTE
    ../clib/signal.c                         0x00000000   Number         0  defsig_other.o ABSOLUTE
    ../clib/signal.c                         0x00000000   Number         0  __raise.o ABSOLUTE
    ../clib/signal.c                         0x00000000   Number         0  defsig_segv_inner.o ABSOLUTE
    ../clib/signal.c                         0x00000000   Number         0  defsig_cppl_inner.o ABSOLUTE
    ../clib/signal.c                         0x00000000   Number         0  defsig_pvfn_inner.o ABSOLUTE
    ../clib/signal.c                         0x00000000   Number         0  defsig_stak_inner.o ABSOLUTE
    ../clib/signal.s                         0x00000000   Number         0  defsig.o ABSOLUTE
    ../clib/stdio.c                          0x00000000   Number         0  ferror.o ABSOLUTE
    ../clib/stdio.c                          0x00000000   Number         0  ferror_locked.o ABSOLUTE
    ../clib/stdlib.c                         0x00000000   Number         0  exit.o ABSOLUTE
    ../clib/string.c                         0x00000000   Number         0  strlen.o ABSOLUTE
    ../clib/string.c                         0x00000000   Number         0  strstr.o ABSOLUTE
    ../fplib/basic.s                         0x00000000   Number         0  basic.o ABSOLUTE
    ../fplib/daddsub.s                       0x00000000   Number         0  daddsub_clz.o ABSOLUTE
    ../fplib/dcmpi.s                         0x00000000   Number         0  dcmpi.o ABSOLUTE
    ../fplib/ddiv.s                          0x00000000   Number         0  ddiv.o ABSOLUTE
    ../fplib/dfix.s                          0x00000000   Number         0  dfix.o ABSOLUTE
    ../fplib/dfixu.s                         0x00000000   Number         0  dfixu.o ABSOLUTE
    ../fplib/dflt.s                          0x00000000   Number         0  dflt_clz.o ABSOLUTE
    ../fplib/dleqf.s                         0x00000000   Number         0  dleqf.o ABSOLUTE
    ../fplib/dmul.s                          0x00000000   Number         0  dmul.o ABSOLUTE
    ../fplib/dnaninf.s                       0x00000000   Number         0  dnaninf.o ABSOLUTE
    ../fplib/dretinf.s                       0x00000000   Number         0  dretinf.o ABSOLUTE
    ../fplib/drleqf.s                        0x00000000   Number         0  drleqf.o ABSOLUTE
    ../fplib/dsqrt.s                         0x00000000   Number         0  dsqrt_umaal.o ABSOLUTE
    ../fplib/fpinit.s                        0x00000000   Number         0  fpinit.o ABSOLUTE
    ../fplib/usenofp.s                       0x00000000   Number         0  usenofp.o ABSOLUTE
    ../mathlib/acos.c                        0x00000000   Number         0  acos.o ABSOLUTE
    ../mathlib/acos.c                        0x00000000   Number         0  acos_x.o ABSOLUTE
    ../mathlib/asin.c                        0x00000000   Number         0  asin.o ABSOLUTE
    ../mathlib/asin.c                        0x00000000   Number         0  asin_x.o ABSOLUTE
    ../mathlib/cos.c                         0x00000000   Number         0  cos.o ABSOLUTE
    ../mathlib/cos.c                         0x00000000   Number         0  cos_x.o ABSOLUTE
    ../mathlib/cos_i.c                       0x00000000   Number         0  cos_i.o ABSOLUTE
    ../mathlib/dunder.c                      0x00000000   Number         0  dunder.o ABSOLUTE
    ../mathlib/fabs.c                        0x00000000   Number         0  fabs.o ABSOLUTE
    ../mathlib/fpclassify.c                  0x00000000   Number         0  fpclassify.o ABSOLUTE
    ../mathlib/poly.c                        0x00000000   Number         0  poly.o ABSOLUTE
    ../mathlib/rred.c                        0x00000000   Number         0  rred.o ABSOLUTE
    ../mathlib/sin.c                         0x00000000   Number         0  sin_x.o ABSOLUTE
    ../mathlib/sin.c                         0x00000000   Number         0  sin.o ABSOLUTE
    ../mathlib/sin_i.c                       0x00000000   Number         0  sin_i_x.o ABSOLUTE
    ../mathlib/sin_i.c                       0x00000000   Number         0  sin_i.o ABSOLUTE
    ../mathlib/sqrt.c                        0x00000000   Number         0  sqrt.o ABSOLUTE
    ../mathlib/sqrt.c                        0x00000000   Number         0  sqrt_x.o ABSOLUTE
    ..\..\FreeRTOS\Source\list.c             0x00000000   Number         0  list.o ABSOLUTE
    ..\..\FreeRTOS\Source\portable\MemMang\heap_2.c 0x00000000   Number         0  heap_2.o ABSOLUTE
    ..\..\FreeRTOS\Source\portable\RVDS\ARM_CM4F\port.c 0x00000000   Number         0  port.o ABSOLUTE
    ..\..\FreeRTOS\Source\queue.c            0x00000000   Number         0  queue.o ABSOLUTE
    ..\..\FreeRTOS\Source\tasks.c            0x00000000   Number         0  tasks.o ABSOLUTE
    ..\..\Libraries\FWLIB\src\misc.c         0x00000000   Number         0  misc.o ABSOLUTE
    ..\..\Libraries\FWLIB\src\stm32f4xx_dma.c 0x00000000   Number         0  stm32f4xx_dma.o ABSOLUTE
    ..\..\Libraries\FWLIB\src\stm32f4xx_exti.c 0x00000000   Number         0  stm32f4xx_exti.o ABSOLUTE
    ..\..\Libraries\FWLIB\src\stm32f4xx_flash.c 0x00000000   Number         0  stm32f4xx_flash.o ABSOLUTE
    ..\..\Libraries\FWLIB\src\stm32f4xx_fsmc.c 0x00000000   Number         0  stm32f4xx_fsmc.o ABSOLUTE
    ..\..\Libraries\FWLIB\src\stm32f4xx_gpio.c 0x00000000   Number         0  stm32f4xx_gpio.o ABSOLUTE
    ..\..\Libraries\FWLIB\src\stm32f4xx_pwr.c 0x00000000   Number         0  stm32f4xx_pwr.o ABSOLUTE
    ..\..\Libraries\FWLIB\src\stm32f4xx_rcc.c 0x00000000   Number         0  stm32f4xx_rcc.o ABSOLUTE
    ..\..\Libraries\FWLIB\src\stm32f4xx_rtc.c 0x00000000   Number         0  stm32f4xx_rtc.o ABSOLUTE
    ..\..\Libraries\FWLIB\src\stm32f4xx_usart.c 0x00000000   Number         0  stm32f4xx_usart.o ABSOLUTE
    ..\..\Libraries\StartUp\startup_stm32f40_41xxx.s 0x00000000   Number         0  startup_stm32f40_41xxx.o ABSOLUTE
    ..\..\Libraries\stm32f4xx_it.c           0x00000000   Number         0  stm32f4xx_it.o ABSOLUTE
    ..\..\Libraries\system_stm32f4xx.c       0x00000000   Number         0  system_stm32f4xx.o ABSOLUTE
    ..\..\USER\FreeRTOS_Hook.c               0x00000000   Number         0  freertos_hook.o ABSOLUTE
    ..\..\USER\ballast_comm.c                0x00000000   Number         0  ballast_comm.o ABSOLUTE
    ..\..\USER\ballast_protocol.c            0x00000000   Number         0  ballast_protocol.o ABSOLUTE
    ..\..\USER\common.c                      0x00000000   Number         0  common.o ABSOLUTE
    ..\..\USER\electric.c                    0x00000000   Number         0  electric.o ABSOLUTE
    ..\..\USER\gateway_protocol.c            0x00000000   Number         0  gateway_protocol.o ABSOLUTE
    ..\..\USER\gsm.c                         0x00000000   Number         0  gsm.o ABSOLUTE
    ..\..\USER\km_ctrl.c                     0x00000000   Number         0  km_ctrl.o ABSOLUTE
    ..\..\USER\lat_longitude.c               0x00000000   Number         0  lat_longitude.o ABSOLUTE
    ..\..\USER\main.c                        0x00000000   Number         0  main.o ABSOLUTE
    ..\..\USER\sys_debug.c                   0x00000000   Number         0  sys_debug.o ABSOLUTE
    ..\..\USER\time_plan.c                   0x00000000   Number         0  time_plan.o ABSOLUTE
    ..\..\ZKLib_STM32F4\stm32\fsmc_nor.c     0x00000000   Number         0  fsmc_nor.o ABSOLUTE
    ..\..\ZKLib_STM32F4\stm32\norflash.c     0x00000000   Number         0  norflash.o ABSOLUTE
    ..\..\ZKLib_STM32F4\stm32\rtc.c          0x00000000   Number         0  rtc.o ABSOLUTE
    ..\..\ZKLib_STM32F4\stm32\uart_debug.c   0x00000000   Number         0  uart_debug.o ABSOLUTE
    ..\\..\\FreeRTOS\\Source\\portable\\RVDS\\ARM_CM4F\\port.c 0x00000000   Number         0  port.o ABSOLUTE
    ..\\..\\Libraries\\FWLIB\\src\\misc.c    0x00000000   Number         0  misc.o ABSOLUTE
    ..\\..\\Libraries\\FWLIB\\src\\stm32f4xx_dma.c 0x00000000   Number         0  stm32f4xx_dma.o ABSOLUTE
    ..\\..\\Libraries\\FWLIB\\src\\stm32f4xx_exti.c 0x00000000   Number         0  stm32f4xx_exti.o ABSOLUTE
    ..\\..\\Libraries\\FWLIB\\src\\stm32f4xx_flash.c 0x00000000   Number         0  stm32f4xx_flash.o ABSOLUTE
    ..\\..\\Libraries\\FWLIB\\src\\stm32f4xx_fsmc.c 0x00000000   Number         0  stm32f4xx_fsmc.o ABSOLUTE
    ..\\..\\Libraries\\FWLIB\\src\\stm32f4xx_gpio.c 0x00000000   Number         0  stm32f4xx_gpio.o ABSOLUTE
    ..\\..\\Libraries\\FWLIB\\src\\stm32f4xx_pwr.c 0x00000000   Number         0  stm32f4xx_pwr.o ABSOLUTE
    ..\\..\\Libraries\\FWLIB\\src\\stm32f4xx_rcc.c 0x00000000   Number         0  stm32f4xx_rcc.o ABSOLUTE
    ..\\..\\Libraries\\FWLIB\\src\\stm32f4xx_rtc.c 0x00000000   Number         0  stm32f4xx_rtc.o ABSOLUTE
    ..\\..\\Libraries\\FWLIB\\src\\stm32f4xx_usart.c 0x00000000   Number         0  stm32f4xx_usart.o ABSOLUTE
    ..\\..\\Libraries\\stm32f4xx_it.c        0x00000000   Number         0  stm32f4xx_it.o ABSOLUTE
    ..\\..\\Libraries\\system_stm32f4xx.c    0x00000000   Number         0  system_stm32f4xx.o ABSOLUTE
    ..\\..\\USER\\FreeRTOS_Hook.c            0x00000000   Number         0  freertos_hook.o ABSOLUTE
    ..\\..\\USER\\ballast_comm.c             0x00000000   Number         0  ballast_comm.o ABSOLUTE
    ..\\..\\USER\\ballast_protocol.c         0x00000000   Number         0  ballast_protocol.o ABSOLUTE
    ..\\..\\USER\\common.c                   0x00000000   Number         0  common.o ABSOLUTE
    ..\\..\\USER\\electric.c                 0x00000000   Number         0  electric.o ABSOLUTE
    ..\\..\\USER\\gateway_protocol.c         0x00000000   Number         0  gateway_protocol.o ABSOLUTE
    ..\\..\\USER\\gsm.c                      0x00000000   Number         0  gsm.o ABSOLUTE
    ..\\..\\USER\\km_ctrl.c                  0x00000000   Number         0  km_ctrl.o ABSOLUTE
    ..\\..\\USER\\lat_longitude.c            0x00000000   Number         0  lat_longitude.o ABSOLUTE
    ..\\..\\USER\\main.c                     0x00000000   Number         0  main.o ABSOLUTE
    ..\\..\\USER\\sys_debug.c                0x00000000   Number         0  sys_debug.o ABSOLUTE
    ..\\..\\USER\\time_plan.c                0x00000000   Number         0  time_plan.o ABSOLUTE
    ..\\..\\ZKLib_STM32F4\\stm32\\fsmc_nor.c 0x00000000   Number         0  fsmc_nor.o ABSOLUTE
    ..\\..\\ZKLib_STM32F4\\stm32\\norflash.c 0x00000000   Number         0  norflash.o ABSOLUTE
    ..\\..\\ZKLib_STM32F4\\stm32\\rtc.c      0x00000000   Number         0  rtc.o ABSOLUTE
    ..\\..\\ZKLib_STM32F4\\stm32\\uart_debug.c 0x00000000   Number         0  uart_debug.o ABSOLUTE
    dc.s                                     0x00000000   Number         0  dc.o ABSOLUTE
    RESET                                    0x08000000   Section      392  startup_stm32f40_41xxx.o(RESET)
    !!!main                                  0x08000188   Section        8  __main.o(!!!main)
    !!!scatter                               0x08000190   Section       52  __scatter.o(!!!scatter)
    !!dczerorl2                              0x080001c4   Section       90  __dczerorl2.o(!!dczerorl2)
    !!handler_zi                             0x08000220   Section       28  __scatter_zi.o(!!handler_zi)
    .ARM.Collect$$_printf_percent$$00000000  0x0800023c   Section        0  _printf_percent.o(.ARM.Collect$$_printf_percent$$00000000)
    .ARM.Collect$$_printf_percent$$00000014  0x0800023c   Section        6  _printf_s.o(.ARM.Collect$$_printf_percent$$00000014)
    .ARM.Collect$$_printf_percent$$00000017  0x08000242   Section        4  _printf_percent_end.o(.ARM.Collect$$_printf_percent$$00000017)
    .ARM.Collect$$libinit$$00000000          0x08000246   Section        2  libinit.o(.ARM.Collect$$libinit$$00000000)
    .ARM.Collect$$libinit$$00000001          0x08000248   Section        4  libinit2.o(.ARM.Collect$$libinit$$00000001)
    .ARM.Collect$$libinit$$00000004          0x0800024c   Section        0  libinit2.o(.ARM.Collect$$libinit$$00000004)
    .ARM.Collect$$libinit$$0000000A          0x0800024c   Section        0  libinit2.o(.ARM.Collect$$libinit$$0000000A)
    .ARM.Collect$$libinit$$0000000C          0x0800024c   Section        0  libinit2.o(.ARM.Collect$$libinit$$0000000C)
    .ARM.Collect$$libinit$$0000000E          0x0800024c   Section        0  libinit2.o(.ARM.Collect$$libinit$$0000000E)
    .ARM.Collect$$libinit$$0000000F          0x0800024c   Section        6  libinit2.o(.ARM.Collect$$libinit$$0000000F)
    .ARM.Collect$$libinit$$00000011          0x08000252   Section        0  libinit2.o(.ARM.Collect$$libinit$$00000011)
    .ARM.Collect$$libinit$$00000012          0x08000252   Section       12  libinit2.o(.ARM.Collect$$libinit$$00000012)
    .ARM.Collect$$libinit$$00000013          0x0800025e   Section        0  libinit2.o(.ARM.Collect$$libinit$$00000013)
    .ARM.Collect$$libinit$$00000015          0x0800025e   Section        0  libinit2.o(.ARM.Collect$$libinit$$00000015)
    .ARM.Collect$$libinit$$00000017          0x0800025e   Section        0  libinit2.o(.ARM.Collect$$libinit$$00000017)
    .ARM.Collect$$libinit$$00000019          0x0800025e   Section        0  libinit2.o(.ARM.Collect$$libinit$$00000019)
    .ARM.Collect$$libinit$$0000001B          0x0800025e   Section        0  libinit2.o(.ARM.Collect$$libinit$$0000001B)
    .ARM.Collect$$libinit$$0000001D          0x0800025e   Section        0  libinit2.o(.ARM.Collect$$libinit$$0000001D)
    .ARM.Collect$$libinit$$0000001F          0x0800025e   Section        0  libinit2.o(.ARM.Collect$$libinit$$0000001F)
    .ARM.Collect$$libinit$$00000021          0x0800025e   Section        0  libinit2.o(.ARM.Collect$$libinit$$00000021)
    .ARM.Collect$$libinit$$00000023          0x0800025e   Section        0  libinit2.o(.ARM.Collect$$libinit$$00000023)
    .ARM.Collect$$libinit$$00000025          0x0800025e   Section        0  libinit2.o(.ARM.Collect$$libinit$$00000025)
    .ARM.Collect$$libinit$$0000002C          0x0800025e   Section        0  libinit2.o(.ARM.Collect$$libinit$$0000002C)
    .ARM.Collect$$libinit$$0000002E          0x0800025e   Section        0  libinit2.o(.ARM.Collect$$libinit$$0000002E)
    .ARM.Collect$$libinit$$00000030          0x0800025e   Section        0  libinit2.o(.ARM.Collect$$libinit$$00000030)
    .ARM.Collect$$libinit$$00000032          0x0800025e   Section        0  libinit2.o(.ARM.Collect$$libinit$$00000032)
    .ARM.Collect$$libinit$$00000033          0x0800025e   Section        2  libinit2.o(.ARM.Collect$$libinit$$00000033)
    .ARM.Collect$$libshutdown$$00000000      0x08000260   Section        2  libshutdown.o(.ARM.Collect$$libshutdown$$00000000)
    .ARM.Collect$$libshutdown$$00000003      0x08000262   Section        0  libshutdown2.o(.ARM.Collect$$libshutdown$$00000003)
    .ARM.Collect$$libshutdown$$00000006      0x08000262   Section        0  libshutdown2.o(.ARM.Collect$$libshutdown$$00000006)
    .ARM.Collect$$libshutdown$$00000009      0x08000262   Section        0  libshutdown2.o(.ARM.Collect$$libshutdown$$00000009)
    .ARM.Collect$$libshutdown$$0000000B      0x08000262   Section        0  libshutdown2.o(.ARM.Collect$$libshutdown$$0000000B)
    .ARM.Collect$$libshutdown$$0000000E      0x08000262   Section        0  libshutdown2.o(.ARM.Collect$$libshutdown$$0000000E)
    .ARM.Collect$$libshutdown$$0000000F      0x08000262   Section        2  libshutdown2.o(.ARM.Collect$$libshutdown$$0000000F)
    .ARM.Collect$$rtentry$$00000000          0x08000264   Section        0  __rtentry.o(.ARM.Collect$$rtentry$$00000000)
    .ARM.Collect$$rtentry$$00000002          0x08000264   Section        0  __rtentry2.o(.ARM.Collect$$rtentry$$00000002)
    .ARM.Collect$$rtentry$$00000004          0x08000264   Section        6  __rtentry4.o(.ARM.Collect$$rtentry$$00000004)
    .ARM.Collect$$rtentry$$00000009          0x0800026a   Section        0  __rtentry2.o(.ARM.Collect$$rtentry$$00000009)
    .ARM.Collect$$rtentry$$0000000A          0x0800026a   Section        4  __rtentry2.o(.ARM.Collect$$rtentry$$0000000A)
    .ARM.Collect$$rtentry$$0000000C          0x0800026e   Section        0  __rtentry2.o(.ARM.Collect$$rtentry$$0000000C)
    .ARM.Collect$$rtentry$$0000000D          0x0800026e   Section        8  __rtentry2.o(.ARM.Collect$$rtentry$$0000000D)
    .ARM.Collect$$rtexit$$00000000           0x08000276   Section        2  rtexit.o(.ARM.Collect$$rtexit$$00000000)
    .ARM.Collect$$rtexit$$00000002           0x08000278   Section        0  rtexit2.o(.ARM.Collect$$rtexit$$00000002)
    .ARM.Collect$$rtexit$$00000003           0x08000278   Section        4  rtexit2.o(.ARM.Collect$$rtexit$$00000003)
    .ARM.Collect$$rtexit$$00000004           0x0800027c   Section        6  rtexit2.o(.ARM.Collect$$rtexit$$00000004)
    .emb_text                                0x08000284   Section      182  port.o(.emb_text)
    $v0                                      0x08000284   Number         0  port.o(.emb_text)
    .text                                    0x0800033c   Section       64  startup_stm32f40_41xxx.o(.text)
    $v0                                      0x0800033c   Number         0  startup_stm32f40_41xxx.o(.text)
    .text                                    0x0800037c   Section        2  use_no_semi_2.o(.text)
    .text                                    0x08000380   Section        0  noretval__2printf.o(.text)
    .text                                    0x08000398   Section        0  noretval__2sprintf.o(.text)
    .text                                    0x080003c0   Section        0  _printf_str.o(.text)
    .text                                    0x08000412   Section        0  __printf_wp.o(.text)
    .text                                    0x08000520   Section        0  __0sscanf.o(.text)
    .text                                    0x0800055c   Section        0  _scanf_int.o(.text)
    .text                                    0x080006a8   Section        0  _scanf_str.o(.text)
    .text                                    0x08000788   Section        0  strstr.o(.text)
    .text                                    0x080007ac   Section        0  strlen.o(.text)
    .text                                    0x080007ea   Section      138  rt_memcpy_v6.o(.text)
    .text                                    0x08000874   Section       16  aeabi_memset.o(.text)
    .text                                    0x08000884   Section       68  rt_memclr.o(.text)
    .text                                    0x080008c8   Section       78  rt_memclr_w.o(.text)
    .text                                    0x08000916   Section       86  strncpy.o(.text)
    .text                                    0x0800096c   Section      128  strcmpv7m.o(.text)
    .text                                    0x080009ec   Section        0  heapauxi.o(.text)
    .text                                    0x080009f2   Section        2  use_no_semi.o(.text)
    .text                                    0x080009f4   Section        0  _rserrno.o(.text)
    .text                                    0x08000a0c   Section        0  _printf_char_common.o(.text)
    _printf_input_char                       0x08000a0d   Thumb Code    10  _printf_char_common.o(.text)
    .text                                    0x08000a3c   Section        0  _sputc.o(.text)
    .text                                    0x08000a46   Section        0  _printf_char.o(.text)
    .text                                    0x08000a74   Section        0  _printf_char_file.o(.text)
    .text                                    0x08000a98   Section        0  _chval.o(.text)
    .text                                    0x08000ab4   Section        0  scanf_char.o(.text)
    _scanf_char_input                        0x08000ab5   Thumb Code    12  scanf_char.o(.text)
    .text                                    0x08000ae0   Section        0  _sgetc.o(.text)
    .text                                    0x08000b20   Section      100  rt_memcpy_w.o(.text)
    .text                                    0x08000b84   Section        8  rt_errno_addr_intlibspace.o(.text)
    .text                                    0x08000b8c   Section        0  isspace.o(.text)
    .text                                    0x08000ba0   Section        0  _scanf.o(.text)
    .text                                    0x08000f14   Section        0  ferror.o(.text)
    .text                                    0x08000f1c   Section        8  libspace.o(.text)
    .text                                    0x08000f24   Section       74  sys_stackheap_outer.o(.text)
    .text                                    0x08000f70   Section       16  rt_ctype_table.o(.text)
    .text                                    0x08000f80   Section        0  exit.o(.text)
    .text                                    0x08000f8c   Section        8  rt_locale_intlibspace.o(.text)
    i.AllTableInit                           0x08000f94   Section        0  ballast_protocol.o(i.AllTableInit)
    i.BCC_CheckSum                           0x08000f96   Section        0  common.o(i.BCC_CheckSum)
    i.BallastComm1InitHardware               0x08000fb4   Section        0  ballast_comm.o(i.BallastComm1InitHardware)
    BallastComm1InitHardware                 0x08000fb5   Thumb Code    12  ballast_comm.o(i.BallastComm1InitHardware)
    i.BallastComm1RxTxDataInit               0x08000fc0   Section        0  ballast_comm.o(i.BallastComm1RxTxDataInit)
    BallastComm1RxTxDataInit                 0x08000fc1   Thumb Code    40  ballast_comm.o(i.BallastComm1RxTxDataInit)
    i.BallastCommInit                        0x08000ff0   Section        0  ballast_comm.o(i.BallastCommInit)
    i.BallastRxDataClear                     0x08001068   Section        0  ballast_comm.o(i.BallastRxDataClear)
    BallastRxDataClear                       0x08001069   Thumb Code    20  ballast_comm.o(i.BallastRxDataClear)
    i.BallastUartInit                        0x0800107c   Section        0  ballast_comm.o(i.BallastUartInit)
    BallastUartInit                          0x0800107d   Thumb Code   168  ballast_comm.o(i.BallastUartInit)
    i.Ballast_TX_DMA_Init                    0x0800112c   Section        0  ballast_comm.o(i.Ballast_TX_DMA_Init)
    Ballast_TX_DMA_Init                      0x0800112d   Thumb Code   150  ballast_comm.o(i.Ballast_TX_DMA_Init)
    i.Bcd2ToByte                             0x080011d0   Section        0  common.o(i.Bcd2ToByte)
    i.BusFault_Handler                       0x080011e6   Section        0  stm32f4xx_it.o(i.BusFault_Handler)
    i.CaculateWeekDay                        0x080011ea   Section        0  rtc.o(i.CaculateWeekDay)
    i.DMA1_Stream3_IRQHandler                0x0800126c   Section        0  gsm.o(i.DMA1_Stream3_IRQHandler)
    i.DMA1_Stream4_IRQHandler                0x080012b8   Section        0  ballast_comm.o(i.DMA1_Stream4_IRQHandler)
    i.DMA2_Stream7_IRQHandler                0x080012e0   Section        0  electric.o(i.DMA2_Stream7_IRQHandler)
    i.DMA_ClearFlag                          0x0800130c   Section        0  stm32f4xx_dma.o(i.DMA_ClearFlag)
    i.DMA_Cmd                                0x08001340   Section        0  stm32f4xx_dma.o(i.DMA_Cmd)
    i.DMA_DeInit                             0x08001358   Section        0  stm32f4xx_dma.o(i.DMA_DeInit)
    i.DMA_GetCmdStatus                       0x080014b0   Section        0  stm32f4xx_dma.o(i.DMA_GetCmdStatus)
    i.DMA_GetFlagStatus                      0x080014c4   Section        0  stm32f4xx_dma.o(i.DMA_GetFlagStatus)
    i.DMA_ITConfig                           0x08001508   Section        0  stm32f4xx_dma.o(i.DMA_ITConfig)
    i.DMA_Init                               0x08001544   Section        0  stm32f4xx_dma.o(i.DMA_Init)
    i.DMA_SetCurrDataCounter                 0x0800159c   Section        0  stm32f4xx_dma.o(i.DMA_SetCurrDataCounter)
    i.DebugMon_Handler                       0x080015a0   Section        0  stm32f4xx_it.o(i.DebugMon_Handler)
    i.DebugRxDataInit                        0x080015a4   Section        0  sys_debug.o(i.DebugRxDataInit)
    DebugRxDataInit                          0x080015a5   Thumb Code    22  sys_debug.o(i.DebugRxDataInit)
    i.EleRxTxDataInit                        0x080015c0   Section        0  electric.o(i.EleRxTxDataInit)
    EleRxTxDataInit                          0x080015c1   Thumb Code    40  electric.o(i.EleRxTxDataInit)
    i.ElectricInit                           0x080015f0   Section        0  electric.o(i.ElectricInit)
    i.ElectricRxDataClear                    0x08001660   Section        0  electric.o(i.ElectricRxDataClear)
    ElectricRxDataClear                      0x08001661   Thumb Code    20  electric.o(i.ElectricRxDataClear)
    i.ElectricUartInit                       0x08001674   Section        0  electric.o(i.ElectricUartInit)
    ElectricUartInit                         0x08001675   Thumb Code   166  electric.o(i.ElectricUartInit)
    i.Electric_TX_DMA_Init                   0x08001724   Section        0  electric.o(i.Electric_TX_DMA_Init)
    Electric_TX_DMA_Init                     0x08001725   Thumb Code   152  electric.o(i.Electric_TX_DMA_Init)
    i.ElectrolHardwareInit                   0x080017c8   Section        0  electric.o(i.ElectrolHardwareInit)
    ElectrolHardwareInit                     0x080017c9   Thumb Code    12  electric.o(i.ElectrolHardwareInit)
    i.FSMC_NORSRAMCmd                        0x080017d4   Section        0  stm32f4xx_fsmc.o(i.FSMC_NORSRAMCmd)
    i.FSMC_NORSRAMInit                       0x08001808   Section        0  stm32f4xx_fsmc.o(i.FSMC_NORSRAMInit)
    i.FSMC_NOR_EraseSector                   0x08001930   Section        0  fsmc_nor.o(i.FSMC_NOR_EraseSector)
    i.FSMC_NOR_GetStatus                     0x08001968   Section        0  fsmc_nor.o(i.FSMC_NOR_GetStatus)
    i.FSMC_NOR_Init                          0x080019b4   Section        0  fsmc_nor.o(i.FSMC_NOR_Init)
    i.FSMC_NOR_ReadBuffer                    0x08001c50   Section        0  fsmc_nor.o(i.FSMC_NOR_ReadBuffer)
    i.FSMC_NOR_WriteBuffer                   0x08001c84   Section        0  fsmc_nor.o(i.FSMC_NOR_WriteBuffer)
    i.FSMC_NOR_WriteHalfWord                 0x08001cac   Section        0  fsmc_nor.o(i.FSMC_NOR_WriteHalfWord)
    i.GHA                                    0x08001cdc   Section        0  lat_longitude.o(i.GHA)
    i.GPIO_Init                              0x08001f0c   Section        0  stm32f4xx_gpio.o(i.GPIO_Init)
    i.GPIO_PinAFConfig                       0x08001f9c   Section        0  stm32f4xx_gpio.o(i.GPIO_PinAFConfig)
    i.GPIO_ResetBits                         0x08001fe2   Section        0  stm32f4xx_gpio.o(i.GPIO_ResetBits)
    i.GPIO_SetBits                           0x08001fe6   Section        0  stm32f4xx_gpio.o(i.GPIO_SetBits)
    i.GSMInit                                0x08001fec   Section        0  gsm.o(i.GSMInit)
    i.GSMInitHardware                        0x08002050   Section        0  gsm.o(i.GSMInitHardware)
    GSMInitHardware                          0x08002051   Thumb Code    16  gsm.o(i.GSMInitHardware)
    i.GSM_CtrlPinInit                        0x08002060   Section        0  gsm.o(i.GSM_CtrlPinInit)
    GSM_CtrlPinInit                          0x08002061   Thumb Code    46  gsm.o(i.GSM_CtrlPinInit)
    i.GSM_ModuleStart                        0x08002094   Section        0  gsm.o(i.GSM_ModuleStart)
    GSM_ModuleStart                          0x08002095   Thumb Code   112  gsm.o(i.GSM_ModuleStart)
    i.GSM_TX_DMA_Init                        0x08002128   Section        0  gsm.o(i.GSM_TX_DMA_Init)
    GSM_TX_DMA_Init                          0x08002129   Thumb Code   152  gsm.o(i.GSM_TX_DMA_Init)
    i.GSM_USART_Init                         0x080021cc   Section        0  gsm.o(i.GSM_USART_Init)
    GSM_USART_Init                           0x080021cd   Thumb Code   172  gsm.o(i.GSM_USART_Init)
    i.G_sun                                  0x08002280   Section        0  lat_longitude.o(i.G_sun)
    i.GatewaySetDebug                        0x080022c8   Section        0  sys_debug.o(i.GatewaySetDebug)
    GatewaySetDebug                          0x080022c9   Thumb Code    92  sys_debug.o(i.GatewaySetDebug)
    i.GsmDMA_TxBuff                          0x080023a0   Section        0  gsm.o(i.GsmDMA_TxBuff)
    i.GsmRxDataClear                         0x08002420   Section        0  gsm.o(i.GsmRxDataClear)
    GsmRxDataClear                           0x08002421   Thumb Code    20  gsm.o(i.GsmRxDataClear)
    i.GsmRxDataInput                         0x08002434   Section        0  gsm.o(i.GsmRxDataInput)
    GsmRxDataInput                           0x08002435   Thumb Code    26  gsm.o(i.GsmRxDataInput)
    i.GsmRxTxDataInit                        0x08002450   Section        0  gsm.o(i.GsmRxTxDataInit)
    GsmRxTxDataInit                          0x08002451   Thumb Code    40  gsm.o(i.GsmRxTxDataInit)
    i.GsmStartConnect                        0x08002480   Section        0  gsm.o(i.GsmStartConnect)
    i.HandleGatewayParam                     0x0800281c   Section        0  gateway_protocol.o(i.HandleGatewayParam)
    i.HandleLightDimmer                      0x080028f4   Section        0  gateway_protocol.o(i.HandleLightDimmer)
    i.HandleLightOnOff                       0x080028f6   Section        0  gateway_protocol.o(i.HandleLightOnOff)
    i.HandleLightParam                       0x080028f8   Section        0  gateway_protocol.o(i.HandleLightParam)
    i.HandleStrategyDownload                 0x0800290e   Section        0  gateway_protocol.o(i.HandleStrategyDownload)
    i.HardFault_Handler                      0x08002910   Section        0  stm32f4xx_it.o(i.HardFault_Handler)
    i.HeartRemainTCPConnect                  0x08002914   Section        0  gsm.o(i.HeartRemainTCPConnect)
    HeartRemainTCPConnect                    0x08002915   Thumb Code    48  gsm.o(i.HeartRemainTCPConnect)
    i.KM_CtrlInit                            0x08002948   Section        0  km_ctrl.o(i.KM_CtrlInit)
    i.KM_HardwareInit                        0x0800298c   Section        0  km_ctrl.o(i.KM_HardwareInit)
    KM_HardwareInit                          0x0800298d   Thumb Code   114  km_ctrl.o(i.KM_HardwareInit)
    i.KM_vCtrlTask                           0x08002a0c   Section        0  km_ctrl.o(i.KM_vCtrlTask)
    KM_vCtrlTask                             0x08002a0d   Thumb Code    20  km_ctrl.o(i.KM_vCtrlTask)
    i.L_sun                                  0x08002a24   Section        0  lat_longitude.o(i.L_sun)
    i.MemManage_Handler                      0x08002a6c   Section        0  stm32f4xx_it.o(i.MemManage_Handler)
    i.MemStorage_Convert                     0x08002a70   Section        0  norflash.o(i.MemStorage_Convert)
    i.NMI_Handler                            0x08002a88   Section        0  stm32f4xx_it.o(i.NMI_Handler)
    i.NVIC_Init                              0x08002a8c   Section        0  misc.o(i.NVIC_Init)
    i.NVIC_PriorityGroupConfig               0x08002b04   Section        0  misc.o(i.NVIC_PriorityGroupConfig)
    i.NetTimeCentury                         0x08002b18   Section        0  rtc.o(i.NetTimeCentury)
    i.NorFlashInit                           0x08002bac   Section        0  norflash.o(i.NorFlashInit)
    i.NorFlashRead                           0x08002bc8   Section        0  norflash.o(i.NorFlashRead)
    i.NorFlashWrite                          0x08002c04   Section        0  norflash.o(i.NorFlashWrite)
    i.PWR_BackupAccessCmd                    0x08002ca0   Section        0  stm32f4xx_pwr.o(i.PWR_BackupAccessCmd)
    i.Protocol_Response                      0x08002cac   Section        0  gateway_protocol.o(i.Protocol_Response)
    i.RCC_AHB1PeriphClockCmd                 0x08002d74   Section        0  stm32f4xx_rcc.o(i.RCC_AHB1PeriphClockCmd)
    i.RCC_AHB3PeriphClockCmd                 0x08002d94   Section        0  stm32f4xx_rcc.o(i.RCC_AHB3PeriphClockCmd)
    i.RCC_APB1PeriphClockCmd                 0x08002db4   Section        0  stm32f4xx_rcc.o(i.RCC_APB1PeriphClockCmd)
    i.RCC_APB2PeriphClockCmd                 0x08002dd4   Section        0  stm32f4xx_rcc.o(i.RCC_APB2PeriphClockCmd)
    i.RCC_GetClocksFreq                      0x08002df4   Section        0  stm32f4xx_rcc.o(i.RCC_GetClocksFreq)
    i.RCC_GetFlagStatus                      0x08002edc   Section        0  stm32f4xx_rcc.o(i.RCC_GetFlagStatus)
    i.RCC_LSEConfig                          0x08002f1c   Section        0  stm32f4xx_rcc.o(i.RCC_LSEConfig)
    i.RCC_RTCCLKCmd                          0x08002f48   Section        0  stm32f4xx_rcc.o(i.RCC_RTCCLKCmd)
    i.RCC_RTCCLKConfig                       0x08002f54   Section        0  stm32f4xx_rcc.o(i.RCC_RTCCLKConfig)
    i.RTC_Bcd2ToByte                         0x08002f90   Section        0  stm32f4xx_rtc.o(i.RTC_Bcd2ToByte)
    RTC_Bcd2ToByte                           0x08002f91   Thumb Code    22  stm32f4xx_rtc.o(i.RTC_Bcd2ToByte)
    i.RTC_ByteToBcd2                         0x08002fa6   Section        0  stm32f4xx_rtc.o(i.RTC_ByteToBcd2)
    RTC_ByteToBcd2                           0x08002fa7   Thumb Code    28  stm32f4xx_rtc.o(i.RTC_ByteToBcd2)
    i.RTC_EnterInitMode                      0x08002fc4   Section        0  stm32f4xx_rtc.o(i.RTC_EnterInitMode)
    i.RTC_ExitInitMode                       0x08003014   Section        0  stm32f4xx_rtc.o(i.RTC_ExitInitMode)
    i.RTC_GetDate                            0x08003028   Section        0  stm32f4xx_rtc.o(i.RTC_GetDate)
    i.RTC_GetTime                            0x08003074   Section        0  stm32f4xx_rtc.o(i.RTC_GetTime)
    i.RTC_Init                               0x080030c4   Section        0  stm32f4xx_rtc.o(i.RTC_Init)
    i.RTC_ReadBackupRegister                 0x08003128   Section        0  stm32f4xx_rtc.o(i.RTC_ReadBackupRegister)
    i.RTC_SetDate                            0x08003148   Section        0  stm32f4xx_rtc.o(i.RTC_SetDate)
    i.RTC_SetTime                            0x08003210   Section        0  stm32f4xx_rtc.o(i.RTC_SetTime)
    i.RTC_WaitForSynchro                     0x080032e0   Section        0  stm32f4xx_rtc.o(i.RTC_WaitForSynchro)
    i.RTC_WriteBackupRegister                0x08003340   Section        0  stm32f4xx_rtc.o(i.RTC_WriteBackupRegister)
    i.ReadRTC_Time                           0x0800335c   Section        0  rtc.o(i.ReadRTC_Time)
    i.RelinkTCP                              0x080033d4   Section        0  gsm.o(i.RelinkTCP)
    i.RtcInit                                0x08003478   Section        0  rtc.o(i.RtcInit)
    i.SendMsgToSim                           0x080034f4   Section        0  gsm.o(i.SendMsgToSim)
    i.SetSeriveIPPort                        0x08003594   Section        0  sys_debug.o(i.SetSeriveIPPort)
    SetSeriveIPPort                          0x08003595   Thumb Code   266  sys_debug.o(i.SetSeriveIPPort)
    i.SetSysClock                            0x0800373c   Section        0  system_stm32f4xx.o(i.SetSysClock)
    SetSysClock                              0x0800373d   Thumb Code   220  system_stm32f4xx.o(i.SetSysClock)
    i.SetWGAddr                              0x08003828   Section        0  sys_debug.o(i.SetWGAddr)
    SetWGAddr                                0x08003829   Thumb Code   136  sys_debug.o(i.SetWGAddr)
    i.SimSendData                            0x080038f8   Section        0  gsm.o(i.SimSendData)
    i.SwitchToCommand                        0x08003970   Section        0  gsm.o(i.SwitchToCommand)
    i.SwitchToData                           0x080039b8   Section        0  gsm.o(i.SwitchToData)
    i.SystemInit                             0x080039fc   Section        0  system_stm32f4xx.o(i.SystemInit)
    i.TaskPrintfDebug                        0x08003a64   Section        0  sys_debug.o(i.TaskPrintfDebug)
    TaskPrintfDebug                          0x08003a65   Thumb Code     2  sys_debug.o(i.TaskPrintfDebug)
    i.TestModeMain                           0x08003a68   Section        0  sys_debug.o(i.TestModeMain)
    TestModeMain                             0x08003a69   Thumb Code   144  sys_debug.o(i.TestModeMain)
    i.UART4_IRQHandler                       0x08003c90   Section        0  ballast_comm.o(i.UART4_IRQHandler)
    i.USART1_IRQHandler                      0x08003d24   Section        0  electric.o(i.USART1_IRQHandler)
    i.USART3_IRQHandler                      0x08003db8   Section        0  gsm.o(i.USART3_IRQHandler)
    i.USART6_IRQHandler                      0x08003f18   Section        0  sys_debug.o(i.USART6_IRQHandler)
    i.USART_Cmd                              0x08003fd0   Section        0  stm32f4xx_usart.o(i.USART_Cmd)
    i.USART_DMACmd                           0x08003fe8   Section        0  stm32f4xx_usart.o(i.USART_DMACmd)
    i.USART_GetITStatus                      0x08003ffa   Section        0  stm32f4xx_usart.o(i.USART_GetITStatus)
    i.USART_ITConfig                         0x0800404e   Section        0  stm32f4xx_usart.o(i.USART_ITConfig)
    i.USART_Init                             0x08004098   Section        0  stm32f4xx_usart.o(i.USART_Init)
    i.USART_ReceiveData                      0x0800416c   Section        0  stm32f4xx_usart.o(i.USART_ReceiveData)
    i.UT_rise                                0x08004176   Section        0  lat_longitude.o(i.UT_rise)
    i.UT_set                                 0x080041ca   Section        0  lat_longitude.o(i.UT_set)
    i.UartDebugCreateTask                    0x08004220   Section        0  sys_debug.o(i.UartDebugCreateTask)
    UartDebugCreateTask                      0x08004221   Thumb Code    54  sys_debug.o(i.UartDebugCreateTask)
    i.UartDebugHardwareInit                  0x08004274   Section        0  uart_debug.o(i.UartDebugHardwareInit)
    i.UartDebugInit                          0x08004354   Section        0  sys_debug.o(i.UartDebugInit)
    i.UpdataNetTime                          0x08004364   Section        0  rtc.o(i.UpdataNetTime)
    i.UsageFault_Handler                     0x08004528   Section        0  stm32f4xx_it.o(i.UsageFault_Handler)
    i.Zone                                   0x0800452c   Section        0  lat_longitude.o(i.Zone)
    i.__ARM_fpclassify                       0x08004598   Section        0  fpclassify.o(i.__ARM_fpclassify)
    i.__hardfp_acos                          0x080045c8   Section        0  acos.o(i.__hardfp_acos)
    i.__hardfp_asin                          0x08004920   Section        0  asin.o(i.__hardfp_asin)
    i.__hardfp_cos                           0x08004c80   Section        0  cos.o(i.__hardfp_cos)
    i.__hardfp_sin                           0x08004d48   Section        0  sin.o(i.__hardfp_sin)
    i.__ieee754_rem_pio2                     0x08004e10   Section        0  rred.o(i.__ieee754_rem_pio2)
    i.__kernel_cos                           0x08005248   Section        0  cos_i.o(i.__kernel_cos)
    i.__kernel_poly                          0x080053b8   Section        0  poly.o(i.__kernel_poly)
    i.__kernel_sin                           0x080054b0   Section        0  sin_i.o(i.__kernel_sin)
    i.__mathlib_dbl_infnan                   0x080055e0   Section        0  dunder.o(i.__mathlib_dbl_infnan)
    i.__mathlib_dbl_invalid                  0x080055f8   Section        0  dunder.o(i.__mathlib_dbl_invalid)
    i.__mathlib_dbl_underflow                0x08005618   Section        0  dunder.o(i.__mathlib_dbl_underflow)
    i._is_digit                              0x08005638   Section        0  __printf_wp.o(i._is_digit)
    i._sys_exit                              0x08005646   Section        0  uart_debug.o(i._sys_exit)
    i.chr2hex                                0x0800564a   Section        0  common.o(i.chr2hex)
    i.days                                   0x08005680   Section        0  lat_longitude.o(i.days)
    i.e                                      0x080056ec   Section        0  lat_longitude.o(i.e)
    i.earth_tilt                             0x080058b0   Section        0  lat_longitude.o(i.earth_tilt)
    i.ecliptic_longitude                     0x080058f8   Section        0  lat_longitude.o(i.ecliptic_longitude)
    i.fabs                                   0x080059fc   Section        0  fabs.o(i.fabs)
    i.fputc                                  0x08005a14   Section        0  uart_debug.o(i.fputc)
    i.get_glat                               0x08005a30   Section        0  lat_longitude.o(i.get_glat)
    i.get_glong                              0x08005b40   Section        0  lat_longitude.o(i.get_glong)
    i.hex2chr                                0x08005c50   Section        0  common.o(i.hex2chr)
    i.leap_year                              0x08005c72   Section        0  lat_longitude.o(i.leap_year)
    i.main                                   0x08005ca4   Section        0  main.o(i.main)
    i.pcTaskGetTaskName                      0x08005cd8   Section        0  tasks.o(i.pcTaskGetTaskName)
    i.printf_buff                            0x08005cf0   Section        0  sys_debug.o(i.printf_buff)
    i.printf_str                             0x08005d54   Section        0  sys_debug.o(i.printf_str)
    i.prvAddCurrentTaskToDelayedList         0x08005da4   Section        0  tasks.o(i.prvAddCurrentTaskToDelayedList)
    prvAddCurrentTaskToDelayedList           0x08005da5   Thumb Code    62  tasks.o(i.prvAddCurrentTaskToDelayedList)
    i.prvAllocateTCBAndStack                 0x08005df8   Section        0  tasks.o(i.prvAllocateTCBAndStack)
    prvAllocateTCBAndStack                   0x08005df9   Thumb Code    66  tasks.o(i.prvAllocateTCBAndStack)
    i.prvCheckTasksWaitingTermination        0x08005e3c   Section        0  tasks.o(i.prvCheckTasksWaitingTermination)
    prvCheckTasksWaitingTermination          0x08005e3d   Thumb Code    86  tasks.o(i.prvCheckTasksWaitingTermination)
    i.prvCopyDataFromQueue                   0x08005ea0   Section        0  queue.o(i.prvCopyDataFromQueue)
    prvCopyDataFromQueue                     0x08005ea1   Thumb Code    42  queue.o(i.prvCopyDataFromQueue)
    i.prvCopyDataToQueue                     0x08005eca   Section        0  queue.o(i.prvCopyDataToQueue)
    prvCopyDataToQueue                       0x08005ecb   Thumb Code   128  queue.o(i.prvCopyDataToQueue)
    i.prvDeleteTCB                           0x08005f4a   Section        0  tasks.o(i.prvDeleteTCB)
    prvDeleteTCB                             0x08005f4b   Thumb Code    18  tasks.o(i.prvDeleteTCB)
    i.prvHeapInit                            0x08005f5c   Section        0  heap_2.o(i.prvHeapInit)
    prvHeapInit                              0x08005f5d   Thumb Code    38  heap_2.o(i.prvHeapInit)
    i.prvIdleTask                            0x08005f94   Section        0  tasks.o(i.prvIdleTask)
    prvIdleTask                              0x08005f95   Thumb Code    32  tasks.o(i.prvIdleTask)
    i.prvInitialiseTCBVariables              0x08005fbc   Section        0  tasks.o(i.prvInitialiseTCBVariables)
    prvInitialiseTCBVariables                0x08005fbd   Thumb Code    98  tasks.o(i.prvInitialiseTCBVariables)
    i.prvInitialiseTaskLists                 0x08006020   Section        0  tasks.o(i.prvInitialiseTaskLists)
    prvInitialiseTaskLists                   0x08006021   Thumb Code    70  tasks.o(i.prvInitialiseTaskLists)
    i.prvIsQueueEmpty                        0x08006088   Section        0  queue.o(i.prvIsQueueEmpty)
    prvIsQueueEmpty                          0x08006089   Thumb Code    26  queue.o(i.prvIsQueueEmpty)
    i.prvIsQueueFull                         0x080060a2   Section        0  queue.o(i.prvIsQueueFull)
    prvIsQueueFull                           0x080060a3   Thumb Code    30  queue.o(i.prvIsQueueFull)
    i.prvResetNextTaskUnblockTime            0x080060c0   Section        0  tasks.o(i.prvResetNextTaskUnblockTime)
    prvResetNextTaskUnblockTime              0x080060c1   Thumb Code    42  tasks.o(i.prvResetNextTaskUnblockTime)
    i.prvTaskExitError                       0x080060f4   Section        0  port.o(i.prvTaskExitError)
    prvTaskExitError                         0x080060f5   Thumb Code    22  port.o(i.prvTaskExitError)
    i.prvUnlockQueue                         0x0800610a   Section        0  queue.o(i.prvUnlockQueue)
    prvUnlockQueue                           0x0800610b   Thumb Code   126  queue.o(i.prvUnlockQueue)
    i.pvPortMalloc                           0x08006188   Section        0  heap_2.o(i.pvPortMalloc)
    i.pvTaskIncrementMutexHeldCount          0x08006240   Section        0  tasks.o(i.pvTaskIncrementMutexHeldCount)
    i.pxPortInitialiseStack                  0x08006260   Section        0  port.o(i.pxPortInitialiseStack)
    i.resule_convert                         0x08006288   Section        0  lat_longitude.o(i.resule_convert)
    i.result_rise                            0x08006648   Section        0  lat_longitude.o(i.result_rise)
    i.result_set                             0x080068a0   Section        0  lat_longitude.o(i.result_set)
    i.rise_set                               0x08006af8   Section        0  lat_longitude.o(i.rise_set)
    i.sqrt                                   0x08006eec   Section        0  sqrt.o(i.sqrt)
    i.sun_deviation                          0x08006f5c   Section        0  lat_longitude.o(i.sun_deviation)
    i.t_century                              0x08007010   Section        0  lat_longitude.o(i.t_century)
    i.uxListRemove                           0x08007070   Section        0  list.o(i.uxListRemove)
    i.vApplicationStackOverflowHook          0x08007098   Section        0  freertos_hook.o(i.vApplicationStackOverflowHook)
    i.vApplicationTickHook                   0x080070e0   Section        0  freertos_hook.o(i.vApplicationTickHook)
    i.vBallastComm1Task                      0x080070e4   Section        0  ballast_comm.o(i.vBallastComm1Task)
    vBallastComm1Task                        0x080070e5   Thumb Code    76  ballast_comm.o(i.vBallastComm1Task)
    i.vElectTask                             0x08007138   Section        0  electric.o(i.vElectTask)
    vElectTask                               0x08007139   Thumb Code    76  electric.o(i.vElectTask)
    i.vGSMTask                               0x0800718c   Section        0  gsm.o(i.vGSMTask)
    vGSMTask                                 0x0800718d   Thumb Code   126  gsm.o(i.vGSMTask)
    i.vListInitialise                        0x08007218   Section        0  list.o(i.vListInitialise)
    i.vListInitialiseItem                    0x08007232   Section        0  list.o(i.vListInitialiseItem)
    i.vListInsert                            0x08007238   Section        0  list.o(i.vListInsert)
    i.vListInsertEnd                         0x0800726c   Section        0  list.o(i.vListInsertEnd)
    i.vPortEnterCritical                     0x08007284   Section        0  port.o(i.vPortEnterCritical)
    i.vPortExitCritical                      0x080072a8   Section        0  port.o(i.vPortExitCritical)
    i.vPortFree                              0x080072c8   Section        0  heap_2.o(i.vPortFree)
    i.vPortSetupTimerInterrupt               0x08007308   Section        0  port.o(i.vPortSetupTimerInterrupt)
    i.vTaskDelay                             0x0800731c   Section        0  tasks.o(i.vTaskDelay)
    i.vTaskMissedYield                       0x08007380   Section        0  tasks.o(i.vTaskMissedYield)
    i.vTaskPlaceOnEventList                  0x0800738c   Section        0  tasks.o(i.vTaskPlaceOnEventList)
    i.vTaskPriorityInherit                   0x080073f0   Section        0  tasks.o(i.vTaskPriorityInherit)
    i.vTaskSetTimeOutState                   0x080074a0   Section        0  tasks.o(i.vTaskSetTimeOutState)
    i.vTaskStartScheduler                    0x080074b8   Section        0  tasks.o(i.vTaskStartScheduler)
    i.vTaskSuspendAll                        0x0800751c   Section        0  tasks.o(i.vTaskSuspendAll)
    i.vTaskSwitchContext                     0x0800752c   Section        0  tasks.o(i.vTaskSwitchContext)
    i.vUartDebugTask                         0x080075c4   Section        0  sys_debug.o(i.vUartDebugTask)
    vUartDebugTask                           0x080075c5   Thumb Code    50  sys_debug.o(i.vUartDebugTask)
    i.xPortStartScheduler                    0x08007604   Section        0  port.o(i.xPortStartScheduler)
    i.xPortSysTickHandler                    0x0800764c   Section        0  port.o(i.xPortSysTickHandler)
    i.xQueueCreateMutex                      0x08007680   Section        0  queue.o(i.xQueueCreateMutex)
    i.xQueueGenericCreate                    0x080076c8   Section        0  queue.o(i.xQueueGenericCreate)
    i.xQueueGenericReceive                   0x08007710   Section        0  queue.o(i.xQueueGenericReceive)
    i.xQueueGenericReset                     0x08007854   Section        0  queue.o(i.xQueueGenericReset)
    i.xQueueGenericSend                      0x080078d0   Section        0  queue.o(i.xQueueGenericSend)
    i.xQueueGenericSendFromISR               0x080079e0   Section        0  queue.o(i.xQueueGenericSendFromISR)
    i.xQueueGiveFromISR                      0x08007a5e   Section        0  queue.o(i.xQueueGiveFromISR)
    i.xTaskCheckForTimeOut                   0x08007acc   Section        0  tasks.o(i.xTaskCheckForTimeOut)
    i.xTaskGenericCreate                     0x08007b28   Section        0  tasks.o(i.xTaskGenericCreate)
    i.xTaskGetCurrentTaskHandle              0x08007c30   Section        0  tasks.o(i.xTaskGetCurrentTaskHandle)
    i.xTaskGetTickCount                      0x08007c3c   Section        0  tasks.o(i.xTaskGetTickCount)
    i.xTaskIncrementTick                     0x08007c48   Section        0  tasks.o(i.xTaskIncrementTick)
    i.xTaskPriorityDisinherit                0x08007d74   Section        0  tasks.o(i.xTaskPriorityDisinherit)
    i.xTaskRemoveFromEventList               0x08007df8   Section        0  tasks.o(i.xTaskRemoveFromEventList)
    i.xTaskResumeAll                         0x08007e78   Section        0  tasks.o(i.xTaskResumeAll)
    i.zigbee_config                          0x08007f60   Section        0  gateway_protocol.o(i.zigbee_config)
    locale$$code                             0x08007f64   Section       44  lc_ctype_c.o(locale$$code)
    x$fpl$basic                              0x08007f90   Section       24  basic.o(x$fpl$basic)
    $v0                                      0x08007f90   Number         0  basic.o(x$fpl$basic)
    x$fpl$dadd                               0x08007fa8   Section      336  daddsub_clz.o(x$fpl$dadd)
    $v0                                      0x08007fa8   Number         0  daddsub_clz.o(x$fpl$dadd)
    _dadd1                                   0x08007fb9   Thumb Code     0  daddsub_clz.o(x$fpl$dadd)
    x$fpl$dcmpinf                            0x080080f8   Section       24  dcmpi.o(x$fpl$dcmpinf)
    $v0                                      0x080080f8   Number         0  dcmpi.o(x$fpl$dcmpinf)
    x$fpl$ddiv                               0x08008110   Section      688  ddiv.o(x$fpl$ddiv)
    $v0                                      0x08008110   Number         0  ddiv.o(x$fpl$ddiv)
    ddiv_entry                               0x08008117   Thumb Code     0  ddiv.o(x$fpl$ddiv)
    x$fpl$dfix                               0x080083c0   Section       94  dfix.o(x$fpl$dfix)
    $v0                                      0x080083c0   Number         0  dfix.o(x$fpl$dfix)
    x$fpl$dfixu                              0x08008420   Section       90  dfixu.o(x$fpl$dfixu)
    $v0                                      0x08008420   Number         0  dfixu.o(x$fpl$dfixu)
    x$fpl$dflt                               0x0800847a   Section       46  dflt_clz.o(x$fpl$dflt)
    $v0                                      0x0800847a   Number         0  dflt_clz.o(x$fpl$dflt)
    x$fpl$dfltu                              0x080084a8   Section       38  dflt_clz.o(x$fpl$dfltu)
    $v0                                      0x080084a8   Number         0  dflt_clz.o(x$fpl$dfltu)
    x$fpl$dleqf                              0x080084d0   Section      120  dleqf.o(x$fpl$dleqf)
    $v0                                      0x080084d0   Number         0  dleqf.o(x$fpl$dleqf)
    x$fpl$dmul                               0x08008548   Section      340  dmul.o(x$fpl$dmul)
    $v0                                      0x08008548   Number         0  dmul.o(x$fpl$dmul)
    x$fpl$dnaninf                            0x0800869c   Section      156  dnaninf.o(x$fpl$dnaninf)
    $v0                                      0x0800869c   Number         0  dnaninf.o(x$fpl$dnaninf)
    x$fpl$dretinf                            0x08008738   Section       12  dretinf.o(x$fpl$dretinf)
    $v0                                      0x08008738   Number         0  dretinf.o(x$fpl$dretinf)
    x$fpl$drleqf                             0x08008744   Section      108  drleqf.o(x$fpl$drleqf)
    $v0                                      0x08008744   Number         0  drleqf.o(x$fpl$drleqf)
    x$fpl$drsb                               0x080087b0   Section       22  daddsub_clz.o(x$fpl$drsb)
    $v0                                      0x080087b0   Number         0  daddsub_clz.o(x$fpl$drsb)
    x$fpl$dsqrt                              0x080087c8   Section      408  dsqrt_umaal.o(x$fpl$dsqrt)
    $v0                                      0x080087c8   Number         0  dsqrt_umaal.o(x$fpl$dsqrt)
    x$fpl$dsub                               0x08008960   Section      468  daddsub_clz.o(x$fpl$dsub)
    $v0                                      0x08008960   Number         0  daddsub_clz.o(x$fpl$dsub)
    _dsub1                                   0x08008971   Thumb Code     0  daddsub_clz.o(x$fpl$dsub)
    x$fpl$fpinit                             0x08008b34   Section       10  fpinit.o(x$fpl$fpinit)
    $v0                                      0x08008b34   Number         0  fpinit.o(x$fpl$fpinit)
    x$fpl$usenofp                            0x08008b3e   Section        0  usenofp.o(x$fpl$usenofp)
    .constdata                               0x08008b40   Section        8  ballast_comm.o(.constdata)
    Ballast_MessageMaps                      0x08008b40   Data           8  ballast_comm.o(.constdata)
    .constdata                               0x08008b48   Section        8  electric.o(.constdata)
    Electric_MessageMaps                     0x08008b48   Data           8  electric.o(.constdata)
    .constdata                               0x08008b50   Section       40  gsm.o(.constdata)
    GPRS_MessageMaps                         0x08008b50   Data          40  gsm.o(.constdata)
    .constdata                               0x08008b78   Section       80  acos.o(.constdata)
    pS                                       0x08008b78   Data          48  acos.o(.constdata)
    qS                                       0x08008ba8   Data          32  acos.o(.constdata)
    .constdata                               0x08008bc8   Section       80  asin.o(.constdata)
    pS                                       0x08008bc8   Data          48  asin.o(.constdata)
    qS                                       0x08008bf8   Data          32  asin.o(.constdata)
    .constdata                               0x08008c18   Section       48  cos_i.o(.constdata)
    C                                        0x08008c18   Data          48  cos_i.o(.constdata)
    .constdata                               0x08008c48   Section      200  rred.o(.constdata)
    pio2s                                    0x08008c48   Data          48  rred.o(.constdata)
    twooverpi                                0x08008c78   Data         152  rred.o(.constdata)
    .constdata                               0x08008d10   Section       40  sin_i.o(.constdata)
    S                                        0x08008d10   Data          40  sin_i.o(.constdata)
    .conststring                             0x08008d38   Section      303  sys_debug.o(.conststring)
    locale$$data                             0x08008e88   Section      272  lc_ctype_c.o(locale$$data)
    __lcctype_c_name                         0x08008e8c   Data           2  lc_ctype_c.o(locale$$data)
    __lcctype_c_start                        0x08008e94   Data           0  lc_ctype_c.o(locale$$data)
    __lcctype_c_end                          0x08008f98   Data           0  lc_ctype_c.o(locale$$data)
    .ARM.__AT_0x10000000                     0x10000000   Section    50000  ballast_protocol.o(.ARM.__AT_0x10000000)
    .ARM.__AT_0x1000C350                     0x1000c350   Section     6000  ballast_protocol.o(.ARM.__AT_0x1000C350)
    .ARM.__AT_0x1000DAC0                     0x1000dac0   Section     6000  ballast_protocol.o(.ARM.__AT_0x1000DAC0)
    .data                                    0x20000000   Section       16  stm32f4xx_rcc.o(.data)
    APBAHBPrescTable                         0x20000000   Data          16  stm32f4xx_rcc.o(.data)
    .data                                    0x20000010   Section        8  ballast_comm.o(.data)
    BallastComm1Queue                        0x20000014   Data           4  ballast_comm.o(.data)
    .data                                    0x20000018   Section        8  electric.o(.data)
    ElectricQueue                            0x2000001c   Data           4  electric.o(.data)
    .data                                    0x20000020   Section       14  gsm.o(.data)
    GSM_GPRS_queue                           0x20000024   Data           4  gsm.o(.data)
    GSM_AT_queue                             0x20000028   Data           4  gsm.o(.data)
    .data                                    0x20000030   Section       17  sys_debug.o(.data)
    uartDebugQueue                           0x20000030   Data           4  sys_debug.o(.data)
    printf_semaphore                         0x20000034   Data           4  sys_debug.o(.data)
    .data                                    0x20000044   Section        4  km_ctrl.o(.data)
    KMCtrlQueue                              0x20000044   Data           4  km_ctrl.o(.data)
    .data                                    0x20000048   Section      136  lat_longitude.o(.data)
    .data                                    0x200000d0   Section        4  port.o(.data)
    uxCriticalNesting                        0x200000d0   Data           4  port.o(.data)
    .data                                    0x200000d4   Section       24  heap_2.o(.data)
    xStart                                   0x200000d4   Data           8  heap_2.o(.data)
    xEnd                                     0x200000dc   Data           8  heap_2.o(.data)
    xFreeBytesRemaining                      0x200000e4   Data           4  heap_2.o(.data)
    xHeapHasBeenInitialised                  0x200000e8   Data           4  heap_2.o(.data)
    .data                                    0x200000ec   Section       56  tasks.o(.data)
    pxDelayedTaskList                        0x200000f0   Data           4  tasks.o(.data)
    pxOverflowDelayedTaskList                0x200000f4   Data           4  tasks.o(.data)
    uxTasksDeleted                           0x200000f8   Data           4  tasks.o(.data)
    uxCurrentNumberOfTasks                   0x200000fc   Data           4  tasks.o(.data)
    xTickCount                               0x20000100   Data           4  tasks.o(.data)
    uxTopReadyPriority                       0x20000104   Data           4  tasks.o(.data)
    xSchedulerRunning                        0x20000108   Data           4  tasks.o(.data)
    uxPendedTicks                            0x2000010c   Data           4  tasks.o(.data)
    xYieldPending                            0x20000110   Data           4  tasks.o(.data)
    xNumOfOverflows                          0x20000114   Data           4  tasks.o(.data)
    uxTaskNumber                             0x20000118   Data           4  tasks.o(.data)
    xNextTaskUnblockTime                     0x2000011c   Data           4  tasks.o(.data)
    uxSchedulerSuspended                     0x20000120   Data           4  tasks.o(.data)
    .data                                    0x20000124   Section        8  rtc.o(.data)
    RTC_SystemRunningSemaphore               0x20000124   Data           4  rtc.o(.data)
    .data                                    0x2000012c   Section        4  norflash.o(.data)
    norflash_semaphore                       0x2000012c   Data           4  norflash.o(.data)
    .data                                    0x20000130   Section        4  uart_debug.o(.data)
    .bss                                     0x20000134   Section      204  ballast_comm.o(.bss)
    .bss                                     0x20000200   Section      204  electric.o(.bss)
    .bss                                     0x200002cc   Section      436  gsm.o(.bss)
    .bss                                     0x20000480   Section       52  sys_debug.o(.bss)
    .bss                                     0x200004b4   Section       16  lat_longitude.o(.bss)
    .bss                                     0x200004c4   Section    122880  heap_2.o(.bss)
    ucHeap                                   0x200004c4   Data       122880  heap_2.o(.bss)
    .bss                                     0x2001e4c4   Section      200  tasks.o(.bss)
    pxReadyTasksLists                        0x2001e4c4   Data         100  tasks.o(.bss)
    xDelayedTaskList1                        0x2001e528   Data          20  tasks.o(.bss)
    xDelayedTaskList2                        0x2001e53c   Data          20  tasks.o(.bss)
    xPendingReadyList                        0x2001e550   Data          20  tasks.o(.bss)
    xTasksWaitingTermination                 0x2001e564   Data          20  tasks.o(.bss)
    xSuspendedTaskList                       0x2001e578   Data          20  tasks.o(.bss)
    .bss                                     0x2001e58c   Section       28  rtc.o(.bss)
    .bss                                     0x2001e5a8   Section       96  libspace.o(.bss)
    HEAP                                     0x2001e608   Section      512  startup_stm32f40_41xxx.o(HEAP)
    Heap_Mem                                 0x2001e608   Data         512  startup_stm32f40_41xxx.o(HEAP)
    STACK                                    0x2001e808   Section     1024  startup_stm32f40_41xxx.o(STACK)
    Stack_Mem                                0x2001e808   Data        1024  startup_stm32f40_41xxx.o(STACK)
    __initial_sp                             0x2001ec08   Data           0  startup_stm32f40_41xxx.o(STACK)

    Global Symbols

    Symbol Name                              Value     Ov Type        Size  Object(Section)

    BuildAttributes$$THM_ISAv4$E$P$D$K$B$S$7EM$VFPi3$EXTD16$VFPS$VFMA$PE$A:L22UL41UL21$X:L11$S22US41US21$IEEE1$IW$USESV6$~STKCKD$USESV7$~SHL$OTIME$ROPI$IEEEX$EBA8$UX$STANDARDLIB$REQ8$PRES8$EABIv2 0x00000000   Number         0  anon$$obj.o ABSOLUTE
    __ARM_use_no_argv                        0x00000000   Number         0  main.o ABSOLUTE
    _printf_flags                            0x00000000   Number         0  printf_stubs.o ABSOLUTE
    _printf_return_value                     0x00000000   Number         0  printf_stubs.o ABSOLUTE
    _printf_sizespec                         0x00000000   Number         0  printf_stubs.o ABSOLUTE
    _printf_widthprec                        0x00000000   Number         0  printf_stubs.o ABSOLUTE
    __ARM_exceptions_init                     - Undefined Weak Reference
    __alloca_initialize                       - Undefined Weak Reference
    __arm_preinit_                            - Undefined Weak Reference
    __cpp_initialize__aeabi_                  - Undefined Weak Reference
    __cxa_finalize                            - Undefined Weak Reference
    __sigvec_lookup                           - Undefined Weak Reference
    _atexit_init                              - Undefined Weak Reference
    _call_atexit_fns                          - Undefined Weak Reference
    _clock_init                               - Undefined Weak Reference
    _fp_trap_init                             - Undefined Weak Reference
    _fp_trap_shutdown                         - Undefined Weak Reference
    _get_lc_collate                           - Undefined Weak Reference
    _get_lc_monetary                          - Undefined Weak Reference
    _get_lc_numeric                           - Undefined Weak Reference
    _get_lc_time                              - Undefined Weak Reference
    _getenv_init                              - Undefined Weak Reference
    _handle_redirection                       - Undefined Weak Reference
    _init_alloc                               - Undefined Weak Reference
    _init_user_alloc                          - Undefined Weak Reference
    _initio                                   - Undefined Weak Reference
    _mutex_acquire                            - Undefined Weak Reference
    _mutex_release                            - Undefined Weak Reference
    _printf_mbtowc                            - Undefined Weak Reference
    _printf_post_padding                      - Undefined Weak Reference
    _printf_pre_padding                       - Undefined Weak Reference
    _rand_init                                - Undefined Weak Reference
    _scanf_longlong                           - Undefined Weak Reference
    _scanf_mbtowc                             - Undefined Weak Reference
    _scanf_real                               - Undefined Weak Reference
    _scanf_wctomb                             - Undefined Weak Reference
    _scanf_wstring                            - Undefined Weak Reference
    _signal_finish                            - Undefined Weak Reference
    _signal_init                              - Undefined Weak Reference
    _terminate_alloc                          - Undefined Weak Reference
    _terminate_user_alloc                     - Undefined Weak Reference
    _terminateio                              - Undefined Weak Reference
    __Vectors_Size                           0x00000188   Number         0  startup_stm32f40_41xxx.o ABSOLUTE
    __Vectors                                0x08000000   Data           4  startup_stm32f40_41xxx.o(RESET)
    __Vectors_End                            0x08000188   Data           0  startup_stm32f40_41xxx.o(RESET)
    __main                                   0x08000189   Thumb Code     8  __main.o(!!!main)
    __scatterload                            0x08000191   Thumb Code     0  __scatter.o(!!!scatter)
    __scatterload_rt2                        0x08000191   Thumb Code    44  __scatter.o(!!!scatter)
    __scatterload_rt2_thumb_only             0x08000191   Thumb Code     0  __scatter.o(!!!scatter)
    __scatterload_null                       0x0800019f   Thumb Code     0  __scatter.o(!!!scatter)
    __decompress                             0x080001c5   Thumb Code    90  __dczerorl2.o(!!dczerorl2)
    __decompress1                            0x080001c5   Thumb Code     0  __dczerorl2.o(!!dczerorl2)
    __scatterload_zeroinit                   0x08000221   Thumb Code    28  __scatter_zi.o(!!handler_zi)
    _printf_percent                          0x0800023d   Thumb Code     0  _printf_percent.o(.ARM.Collect$$_printf_percent$$00000000)
    _printf_s                                0x0800023d   Thumb Code     0  _printf_s.o(.ARM.Collect$$_printf_percent$$00000014)
    _printf_percent_end                      0x08000243   Thumb Code     0  _printf_percent_end.o(.ARM.Collect$$_printf_percent$$00000017)
    __rt_lib_init                            0x08000247   Thumb Code     0  libinit.o(.ARM.Collect$$libinit$$00000000)
    __rt_lib_init_fp_1                       0x08000249   Thumb Code     0  libinit2.o(.ARM.Collect$$libinit$$00000001)
    __rt_lib_init_heap_1                     0x0800024d   Thumb Code     0  libinit2.o(.ARM.Collect$$libinit$$0000000A)
    __rt_lib_init_lc_common                  0x0800024d   Thumb Code     0  libinit2.o(.ARM.Collect$$libinit$$0000000F)
    __rt_lib_init_preinit_1                  0x0800024d   Thumb Code     0  libinit2.o(.ARM.Collect$$libinit$$00000004)
    __rt_lib_init_rand_1                     0x0800024d   Thumb Code     0  libinit2.o(.ARM.Collect$$libinit$$0000000E)
    __rt_lib_init_user_alloc_1               0x0800024d   Thumb Code     0  libinit2.o(.ARM.Collect$$libinit$$0000000C)
    __rt_lib_init_lc_collate_1               0x08000253   Thumb Code     0  libinit2.o(.ARM.Collect$$libinit$$00000011)
    __rt_lib_init_lc_ctype_2                 0x08000253   Thumb Code     0  libinit2.o(.ARM.Collect$$libinit$$00000012)
    __rt_lib_init_alloca_1                   0x0800025f   Thumb Code     0  libinit2.o(.ARM.Collect$$libinit$$0000002E)
    __rt_lib_init_argv_1                     0x0800025f   Thumb Code     0  libinit2.o(.ARM.Collect$$libinit$$0000002C)
    __rt_lib_init_atexit_1                   0x0800025f   Thumb Code     0  libinit2.o(.ARM.Collect$$libinit$$0000001B)
    __rt_lib_init_clock_1                    0x0800025f   Thumb Code     0  libinit2.o(.ARM.Collect$$libinit$$00000021)
    __rt_lib_init_cpp_1                      0x0800025f   Thumb Code     0  libinit2.o(.ARM.Collect$$libinit$$00000032)
    __rt_lib_init_exceptions_1               0x0800025f   Thumb Code     0  libinit2.o(.ARM.Collect$$libinit$$00000030)
    __rt_lib_init_fp_trap_1                  0x0800025f   Thumb Code     0  libinit2.o(.ARM.Collect$$libinit$$0000001F)
    __rt_lib_init_getenv_1                   0x0800025f   Thumb Code     0  libinit2.o(.ARM.Collect$$libinit$$00000023)
    __rt_lib_init_lc_ctype_1                 0x0800025f   Thumb Code     0  libinit2.o(.ARM.Collect$$libinit$$00000013)
    __rt_lib_init_lc_monetary_1              0x0800025f   Thumb Code     0  libinit2.o(.ARM.Collect$$libinit$$00000015)
    __rt_lib_init_lc_numeric_1               0x0800025f   Thumb Code     0  libinit2.o(.ARM.Collect$$libinit$$00000017)
    __rt_lib_init_lc_time_1                  0x0800025f   Thumb Code     0  libinit2.o(.ARM.Collect$$libinit$$00000019)
    __rt_lib_init_return                     0x0800025f   Thumb Code     0  libinit2.o(.ARM.Collect$$libinit$$00000033)
    __rt_lib_init_signal_1                   0x0800025f   Thumb Code     0  libinit2.o(.ARM.Collect$$libinit$$0000001D)
    __rt_lib_init_stdio_1                    0x0800025f   Thumb Code     0  libinit2.o(.ARM.Collect$$libinit$$00000025)
    __rt_lib_shutdown                        0x08000261   Thumb Code     0  libshutdown.o(.ARM.Collect$$libshutdown$$00000000)
    __rt_lib_shutdown_fp_trap_1              0x08000263   Thumb Code     0  libshutdown2.o(.ARM.Collect$$libshutdown$$00000006)
    __rt_lib_shutdown_heap_1                 0x08000263   Thumb Code     0  libshutdown2.o(.ARM.Collect$$libshutdown$$0000000E)
    __rt_lib_shutdown_return                 0x08000263   Thumb Code     0  libshutdown2.o(.ARM.Collect$$libshutdown$$0000000F)
    __rt_lib_shutdown_signal_1               0x08000263   Thumb Code     0  libshutdown2.o(.ARM.Collect$$libshutdown$$00000009)
    __rt_lib_shutdown_stdio_1                0x08000263   Thumb Code     0  libshutdown2.o(.ARM.Collect$$libshutdown$$00000003)
    __rt_lib_shutdown_user_alloc_1           0x08000263   Thumb Code     0  libshutdown2.o(.ARM.Collect$$libshutdown$$0000000B)
    __rt_entry                               0x08000265   Thumb Code     0  __rtentry.o(.ARM.Collect$$rtentry$$00000000)
    __rt_entry_presh_1                       0x08000265   Thumb Code     0  __rtentry2.o(.ARM.Collect$$rtentry$$00000002)
    __rt_entry_sh                            0x08000265   Thumb Code     0  __rtentry4.o(.ARM.Collect$$rtentry$$00000004)
    __rt_entry_li                            0x0800026b   Thumb Code     0  __rtentry2.o(.ARM.Collect$$rtentry$$0000000A)
    __rt_entry_postsh_1                      0x0800026b   Thumb Code     0  __rtentry2.o(.ARM.Collect$$rtentry$$00000009)
    __rt_entry_main                          0x0800026f   Thumb Code     0  __rtentry2.o(.ARM.Collect$$rtentry$$0000000D)
    __rt_entry_postli_1                      0x0800026f   Thumb Code     0  __rtentry2.o(.ARM.Collect$$rtentry$$0000000C)
    __rt_exit                                0x08000277   Thumb Code     0  rtexit.o(.ARM.Collect$$rtexit$$00000000)
    __rt_exit_ls                             0x08000279   Thumb Code     0  rtexit2.o(.ARM.Collect$$rtexit$$00000003)
    __rt_exit_prels_1                        0x08000279   Thumb Code     0  rtexit2.o(.ARM.Collect$$rtexit$$00000002)
    __rt_exit_exit                           0x0800027d   Thumb Code     0  rtexit2.o(.ARM.Collect$$rtexit$$00000004)
    vPortSVCHandler                          0x08000285   Thumb Code    28  port.o(.emb_text)
    __asm___6_port_c_39a90d8d__prvStartFirstTask 0x080002a5   Thumb Code    28  port.o(.emb_text)
    __asm___6_port_c_39a90d8d__prvEnableVFP  0x080002c5   Thumb Code    16  port.o(.emb_text)
    xPortPendSVHandler                       0x080002d9   Thumb Code    88  port.o(.emb_text)
    vPortGetIPSR                             0x08000335   Thumb Code     6  port.o(.emb_text)
    Reset_Handler                            0x0800033d   Thumb Code     8  startup_stm32f40_41xxx.o(.text)
    SVC_Handler                              0x0800034f   Thumb Code     2  startup_stm32f40_41xxx.o(.text)
    PendSV_Handler                           0x08000353   Thumb Code     2  startup_stm32f40_41xxx.o(.text)
    SysTick_Handler                          0x08000355   Thumb Code     2  startup_stm32f40_41xxx.o(.text)
    ADC_IRQHandler                           0x08000357   Thumb Code     0  startup_stm32f40_41xxx.o(.text)
    CAN1_RX0_IRQHandler                      0x08000357   Thumb Code     0  startup_stm32f40_41xxx.o(.text)
    CAN1_RX1_IRQHandler                      0x08000357   Thumb Code     0  startup_stm32f40_41xxx.o(.text)
    CAN1_SCE_IRQHandler                      0x08000357   Thumb Code     0  startup_stm32f40_41xxx.o(.text)
    CAN1_TX_IRQHandler                       0x08000357   Thumb Code     0  startup_stm32f40_41xxx.o(.text)
    CAN2_RX0_IRQHandler                      0x08000357   Thumb Code     0  startup_stm32f40_41xxx.o(.text)
    CAN2_RX1_IRQHandler                      0x08000357   Thumb Code     0  startup_stm32f40_41xxx.o(.text)
    CAN2_SCE_IRQHandler                      0x08000357   Thumb Code     0  startup_stm32f40_41xxx.o(.text)
    CAN2_TX_IRQHandler                       0x08000357   Thumb Code     0  startup_stm32f40_41xxx.o(.text)
    CRYP_IRQHandler                          0x08000357   Thumb Code     0  startup_stm32f40_41xxx.o(.text)
    DCMI_IRQHandler                          0x08000357   Thumb Code     0  startup_stm32f40_41xxx.o(.text)
    DMA1_Stream0_IRQHandler                  0x08000357   Thumb Code     0  startup_stm32f40_41xxx.o(.text)
    DMA1_Stream1_IRQHandler                  0x08000357   Thumb Code     0  startup_stm32f40_41xxx.o(.text)
    DMA1_Stream2_IRQHandler                  0x08000357   Thumb Code     0  startup_stm32f40_41xxx.o(.text)
    DMA1_Stream5_IRQHandler                  0x08000357   Thumb Code     0  startup_stm32f40_41xxx.o(.text)
    DMA1_Stream6_IRQHandler                  0x08000357   Thumb Code     0  startup_stm32f40_41xxx.o(.text)
    DMA1_Stream7_IRQHandler                  0x08000357   Thumb Code     0  startup_stm32f40_41xxx.o(.text)
    DMA2_Stream0_IRQHandler                  0x08000357   Thumb Code     0  startup_stm32f40_41xxx.o(.text)
    DMA2_Stream1_IRQHandler                  0x08000357   Thumb Code     0  startup_stm32f40_41xxx.o(.text)
    DMA2_Stream2_IRQHandler                  0x08000357   Thumb Code     0  startup_stm32f40_41xxx.o(.text)
    DMA2_Stream3_IRQHandler                  0x08000357   Thumb Code     0  startup_stm32f40_41xxx.o(.text)
    DMA2_Stream4_IRQHandler                  0x08000357   Thumb Code     0  startup_stm32f40_41xxx.o(.text)
    DMA2_Stream5_IRQHandler                  0x08000357   Thumb Code     0  startup_stm32f40_41xxx.o(.text)
    DMA2_Stream6_IRQHandler                  0x08000357   Thumb Code     0  startup_stm32f40_41xxx.o(.text)
    ETH_IRQHandler                           0x08000357   Thumb Code     0  startup_stm32f40_41xxx.o(.text)
    ETH_WKUP_IRQHandler                      0x08000357   Thumb Code     0  startup_stm32f40_41xxx.o(.text)
    EXTI0_IRQHandler                         0x08000357   Thumb Code     0  startup_stm32f40_41xxx.o(.text)
    EXTI15_10_IRQHandler                     0x08000357   Thumb Code     0  startup_stm32f40_41xxx.o(.text)
    EXTI1_IRQHandler                         0x08000357   Thumb Code     0  startup_stm32f40_41xxx.o(.text)
    EXTI2_IRQHandler                         0x08000357   Thumb Code     0  startup_stm32f40_41xxx.o(.text)
    EXTI3_IRQHandler                         0x08000357   Thumb Code     0  startup_stm32f40_41xxx.o(.text)
    EXTI4_IRQHandler                         0x08000357   Thumb Code     0  startup_stm32f40_41xxx.o(.text)
    EXTI9_5_IRQHandler                       0x08000357   Thumb Code     0  startup_stm32f40_41xxx.o(.text)
    FLASH_IRQHandler                         0x08000357   Thumb Code     0  startup_stm32f40_41xxx.o(.text)
    FPU_IRQHandler                           0x08000357   Thumb Code     0  startup_stm32f40_41xxx.o(.text)
    FSMC_IRQHandler                          0x08000357   Thumb Code     0  startup_stm32f40_41xxx.o(.text)
    HASH_RNG_IRQHandler                      0x08000357   Thumb Code     0  startup_stm32f40_41xxx.o(.text)
    I2C1_ER_IRQHandler                       0x08000357   Thumb Code     0  startup_stm32f40_41xxx.o(.text)
    I2C1_EV_IRQHandler                       0x08000357   Thumb Code     0  startup_stm32f40_41xxx.o(.text)
    I2C2_ER_IRQHandler                       0x08000357   Thumb Code     0  startup_stm32f40_41xxx.o(.text)
    I2C2_EV_IRQHandler                       0x08000357   Thumb Code     0  startup_stm32f40_41xxx.o(.text)
    I2C3_ER_IRQHandler                       0x08000357   Thumb Code     0  startup_stm32f40_41xxx.o(.text)
    I2C3_EV_IRQHandler                       0x08000357   Thumb Code     0  startup_stm32f40_41xxx.o(.text)
    OTG_FS_IRQHandler                        0x08000357   Thumb Code     0  startup_stm32f40_41xxx.o(.text)
    OTG_FS_WKUP_IRQHandler                   0x08000357   Thumb Code     0  startup_stm32f40_41xxx.o(.text)
    OTG_HS_EP1_IN_IRQHandler                 0x08000357   Thumb Code     0  startup_stm32f40_41xxx.o(.text)
    OTG_HS_EP1_OUT_IRQHandler                0x08000357   Thumb Code     0  startup_stm32f40_41xxx.o(.text)
    OTG_HS_IRQHandler                        0x08000357   Thumb Code     0  startup_stm32f40_41xxx.o(.text)
    OTG_HS_WKUP_IRQHandler                   0x08000357   Thumb Code     0  startup_stm32f40_41xxx.o(.text)
    PVD_IRQHandler                           0x08000357   Thumb Code     0  startup_stm32f40_41xxx.o(.text)
    RCC_IRQHandler                           0x08000357   Thumb Code     0  startup_stm32f40_41xxx.o(.text)
    RTC_Alarm_IRQHandler                     0x08000357   Thumb Code     0  startup_stm32f40_41xxx.o(.text)
    RTC_WKUP_IRQHandler                      0x08000357   Thumb Code     0  startup_stm32f40_41xxx.o(.text)
    SDIO_IRQHandler                          0x08000357   Thumb Code     0  startup_stm32f40_41xxx.o(.text)
    SPI1_IRQHandler                          0x08000357   Thumb Code     0  startup_stm32f40_41xxx.o(.text)
    SPI2_IRQHandler                          0x08000357   Thumb Code     0  startup_stm32f40_41xxx.o(.text)
    SPI3_IRQHandler                          0x08000357   Thumb Code     0  startup_stm32f40_41xxx.o(.text)
    TAMP_STAMP_IRQHandler                    0x08000357   Thumb Code     0  startup_stm32f40_41xxx.o(.text)
    TIM1_BRK_TIM9_IRQHandler                 0x08000357   Thumb Code     0  startup_stm32f40_41xxx.o(.text)
    TIM1_CC_IRQHandler                       0x08000357   Thumb Code     0  startup_stm32f40_41xxx.o(.text)
    TIM1_TRG_COM_TIM11_IRQHandler            0x08000357   Thumb Code     0  startup_stm32f40_41xxx.o(.text)
    TIM1_UP_TIM10_IRQHandler                 0x08000357   Thumb Code     0  startup_stm32f40_41xxx.o(.text)
    TIM2_IRQHandler                          0x08000357   Thumb Code     0  startup_stm32f40_41xxx.o(.text)
    TIM3_IRQHandler                          0x08000357   Thumb Code     0  startup_stm32f40_41xxx.o(.text)
    TIM4_IRQHandler                          0x08000357   Thumb Code     0  startup_stm32f40_41xxx.o(.text)
    TIM5_IRQHandler                          0x08000357   Thumb Code     0  startup_stm32f40_41xxx.o(.text)
    TIM6_DAC_IRQHandler                      0x08000357   Thumb Code     0  startup_stm32f40_41xxx.o(.text)
    TIM7_IRQHandler                          0x08000357   Thumb Code     0  startup_stm32f40_41xxx.o(.text)
    TIM8_BRK_TIM12_IRQHandler                0x08000357   Thumb Code     0  startup_stm32f40_41xxx.o(.text)
    TIM8_CC_IRQHandler                       0x08000357   Thumb Code     0  startup_stm32f40_41xxx.o(.text)
    TIM8_TRG_COM_TIM14_IRQHandler            0x08000357   Thumb Code     0  startup_stm32f40_41xxx.o(.text)
    TIM8_UP_TIM13_IRQHandler                 0x08000357   Thumb Code     0  startup_stm32f40_41xxx.o(.text)
    UART5_IRQHandler                         0x08000357   Thumb Code     0  startup_stm32f40_41xxx.o(.text)
    USART2_IRQHandler                        0x08000357   Thumb Code     0  startup_stm32f40_41xxx.o(.text)
    WWDG_IRQHandler                          0x08000357   Thumb Code     0  startup_stm32f40_41xxx.o(.text)
    __user_initial_stackheap                 0x08000359   Thumb Code     0  startup_stm32f40_41xxx.o(.text)
    __use_no_semihosting                     0x0800037d   Thumb Code     2  use_no_semi_2.o(.text)
    __2printf                                0x08000381   Thumb Code    20  noretval__2printf.o(.text)
    __2sprintf                               0x08000399   Thumb Code    34  noretval__2sprintf.o(.text)
    _printf_str                              0x080003c1   Thumb Code    82  _printf_str.o(.text)
    __printf                                 0x08000413   Thumb Code   270  __printf_wp.o(.text)
    __0sscanf                                0x08000521   Thumb Code    52  __0sscanf.o(.text)
    _scanf_int                               0x0800055d   Thumb Code   332  _scanf_int.o(.text)
    _scanf_string                            0x080006a9   Thumb Code   224  _scanf_str.o(.text)
    strstr                                   0x08000789   Thumb Code    36  strstr.o(.text)
    strlen                                   0x080007ad   Thumb Code    62  strlen.o(.text)
    __aeabi_memcpy                           0x080007eb   Thumb Code     0  rt_memcpy_v6.o(.text)
    __rt_memcpy                              0x080007eb   Thumb Code   138  rt_memcpy_v6.o(.text)
    _memcpy_lastbytes                        0x08000851   Thumb Code     0  rt_memcpy_v6.o(.text)
    __aeabi_memset                           0x08000875   Thumb Code    16  aeabi_memset.o(.text)
    __aeabi_memclr                           0x08000885   Thumb Code     0  rt_memclr.o(.text)
    __rt_memclr                              0x08000885   Thumb Code    68  rt_memclr.o(.text)
    _memset                                  0x08000889   Thumb Code     0  rt_memclr.o(.text)
    __aeabi_memclr4                          0x080008c9   Thumb Code     0  rt_memclr_w.o(.text)
    __aeabi_memclr8                          0x080008c9   Thumb Code     0  rt_memclr_w.o(.text)
    __rt_memclr_w                            0x080008c9   Thumb Code    78  rt_memclr_w.o(.text)
    _memset_w                                0x080008cd   Thumb Code     0  rt_memclr_w.o(.text)
    strncpy                                  0x08000917   Thumb Code    86  strncpy.o(.text)
    strcmp                                   0x0800096d   Thumb Code   128  strcmpv7m.o(.text)
    __use_two_region_memory                  0x080009ed   Thumb Code     2  heapauxi.o(.text)
    __rt_heap_escrow$2region                 0x080009ef   Thumb Code     2  heapauxi.o(.text)
    __rt_heap_expand$2region                 0x080009f1   Thumb Code     2  heapauxi.o(.text)
    __I$use$semihosting                      0x080009f3   Thumb Code     0  use_no_semi.o(.text)
    __use_no_semihosting_swi                 0x080009f3   Thumb Code     2  use_no_semi.o(.text)
    __read_errno                             0x080009f5   Thumb Code    10  _rserrno.o(.text)
    __set_errno                              0x080009ff   Thumb Code    12  _rserrno.o(.text)
    _printf_char_common                      0x08000a17   Thumb Code    32  _printf_char_common.o(.text)
    _sputc                                   0x08000a3d   Thumb Code    10  _sputc.o(.text)
    _printf_cs_common                        0x08000a47   Thumb Code    20  _printf_char.o(.text)
    _printf_char                             0x08000a5b   Thumb Code    16  _printf_char.o(.text)
    _printf_string                           0x08000a6b   Thumb Code     8  _printf_char.o(.text)
    _printf_char_file                        0x08000a75   Thumb Code    32  _printf_char_file.o(.text)
    _chval                                   0x08000a99   Thumb Code    28  _chval.o(.text)
    __vfscanf_char                           0x08000ac1   Thumb Code    24  scanf_char.o(.text)
    _sgetc                                   0x08000ae1   Thumb Code    30  _sgetc.o(.text)
    _sbackspace                              0x08000aff   Thumb Code    34  _sgetc.o(.text)
    __aeabi_memcpy4                          0x08000b21   Thumb Code     0  rt_memcpy_w.o(.text)
    __aeabi_memcpy8                          0x08000b21   Thumb Code     0  rt_memcpy_w.o(.text)
    __rt_memcpy_w                            0x08000b21   Thumb Code   100  rt_memcpy_w.o(.text)
    _memcpy_lastbytes_aligned                0x08000b69   Thumb Code     0  rt_memcpy_w.o(.text)
    __aeabi_errno_addr                       0x08000b85   Thumb Code     8  rt_errno_addr_intlibspace.o(.text)
    __errno$intlibspace                      0x08000b85   Thumb Code     0  rt_errno_addr_intlibspace.o(.text)
    __rt_errno_addr$intlibspace              0x08000b85   Thumb Code     0  rt_errno_addr_intlibspace.o(.text)
    isspace                                  0x08000b8d   Thumb Code    18  isspace.o(.text)
    __vfscanf                                0x08000ba1   Thumb Code   878  _scanf.o(.text)
    ferror                                   0x08000f15   Thumb Code     8  ferror.o(.text)
    __user_libspace                          0x08000f1d   Thumb Code     8  libspace.o(.text)
    __user_perproc_libspace                  0x08000f1d   Thumb Code     0  libspace.o(.text)
    __user_perthread_libspace                0x08000f1d   Thumb Code     0  libspace.o(.text)
    __user_setup_stackheap                   0x08000f25   Thumb Code    74  sys_stackheap_outer.o(.text)
    __rt_ctype_table                         0x08000f71   Thumb Code    16  rt_ctype_table.o(.text)
    exit                                     0x08000f81   Thumb Code    12  exit.o(.text)
    __rt_locale                              0x08000f8d   Thumb Code     8  rt_locale_intlibspace.o(.text)
    AllTableInit                             0x08000f95   Thumb Code     2  ballast_protocol.o(i.AllTableInit)
    BCC_CheckSum                             0x08000f97   Thumb Code    30  common.o(i.BCC_CheckSum)
    BallastCommInit                          0x08000ff1   Thumb Code    86  ballast_comm.o(i.BallastCommInit)
    Bcd2ToByte                               0x080011d1   Thumb Code    22  common.o(i.Bcd2ToByte)
    BusFault_Handler                         0x080011e7   Thumb Code     4  stm32f4xx_it.o(i.BusFault_Handler)
    CaculateWeekDay                          0x080011eb   Thumb Code   128  rtc.o(i.CaculateWeekDay)
    DMA1_Stream3_IRQHandler                  0x0800126d   Thumb Code    62  gsm.o(i.DMA1_Stream3_IRQHandler)
    DMA1_Stream4_IRQHandler                  0x080012b9   Thumb Code    26  ballast_comm.o(i.DMA1_Stream4_IRQHandler)
    DMA2_Stream7_IRQHandler                  0x080012e1   Thumb Code    36  electric.o(i.DMA2_Stream7_IRQHandler)
    DMA_ClearFlag                            0x0800130d   Thumb Code    38  stm32f4xx_dma.o(i.DMA_ClearFlag)
    DMA_Cmd                                  0x08001341   Thumb Code    22  stm32f4xx_dma.o(i.DMA_Cmd)
    DMA_DeInit                               0x08001359   Thumb Code   324  stm32f4xx_dma.o(i.DMA_DeInit)
    DMA_GetCmdStatus                         0x080014b1   Thumb Code    20  stm32f4xx_dma.o(i.DMA_GetCmdStatus)
    DMA_GetFlagStatus                        0x080014c5   Thumb Code    54  stm32f4xx_dma.o(i.DMA_GetFlagStatus)
    DMA_ITConfig                             0x08001509   Thumb Code    58  stm32f4xx_dma.o(i.DMA_ITConfig)
    DMA_Init                                 0x08001545   Thumb Code    82  stm32f4xx_dma.o(i.DMA_Init)
    DMA_SetCurrDataCounter                   0x0800159d   Thumb Code     4  stm32f4xx_dma.o(i.DMA_SetCurrDataCounter)
    DebugMon_Handler                         0x080015a1   Thumb Code     2  stm32f4xx_it.o(i.DebugMon_Handler)
    ElectricInit                             0x080015f1   Thumb Code    86  electric.o(i.ElectricInit)
    FSMC_NORSRAMCmd                          0x080017d5   Thumb Code    46  stm32f4xx_fsmc.o(i.FSMC_NORSRAMCmd)
    FSMC_NORSRAMInit                         0x08001809   Thumb Code   290  stm32f4xx_fsmc.o(i.FSMC_NORSRAMInit)
    FSMC_NOR_EraseSector                     0x08001931   Thumb Code    48  fsmc_nor.o(i.FSMC_NOR_EraseSector)
    FSMC_NOR_GetStatus                       0x08001969   Thumb Code    76  fsmc_nor.o(i.FSMC_NOR_GetStatus)
    FSMC_NOR_Init                            0x080019b5   Thumb Code   650  fsmc_nor.o(i.FSMC_NOR_Init)
    FSMC_NOR_ReadBuffer                      0x08001c51   Thumb Code    44  fsmc_nor.o(i.FSMC_NOR_ReadBuffer)
    FSMC_NOR_WriteBuffer                     0x08001c85   Thumb Code    38  fsmc_nor.o(i.FSMC_NOR_WriteBuffer)
    FSMC_NOR_WriteHalfWord                   0x08001cad   Thumb Code    38  fsmc_nor.o(i.FSMC_NOR_WriteHalfWord)
    GHA                                      0x08001cdd   Thumb Code   496  lat_longitude.o(i.GHA)
    GPIO_Init                                0x08001f0d   Thumb Code   144  stm32f4xx_gpio.o(i.GPIO_Init)
    GPIO_PinAFConfig                         0x08001f9d   Thumb Code    70  stm32f4xx_gpio.o(i.GPIO_PinAFConfig)
    GPIO_ResetBits                           0x08001fe3   Thumb Code     4  stm32f4xx_gpio.o(i.GPIO_ResetBits)
    GPIO_SetBits                             0x08001fe7   Thumb Code     4  stm32f4xx_gpio.o(i.GPIO_SetBits)
    GSMInit                                  0x08001fed   Thumb Code    76  gsm.o(i.GSMInit)
    G_sun                                    0x08002281   Thumb Code    56  lat_longitude.o(i.G_sun)
    GsmDMA_TxBuff                            0x080023a1   Thumb Code   112  gsm.o(i.GsmDMA_TxBuff)
    GsmStartConnect                          0x08002481   Thumb Code   364  gsm.o(i.GsmStartConnect)
    HandleGatewayParam                       0x0800281d   Thumb Code   216  gateway_protocol.o(i.HandleGatewayParam)
    HandleLightDimmer                        0x080028f5   Thumb Code     2  gateway_protocol.o(i.HandleLightDimmer)
    HandleLightOnOff                         0x080028f7   Thumb Code     2  gateway_protocol.o(i.HandleLightOnOff)
    HandleLightParam                         0x080028f9   Thumb Code    22  gateway_protocol.o(i.HandleLightParam)
    HandleStrategyDownload                   0x0800290f   Thumb Code     2  gateway_protocol.o(i.HandleStrategyDownload)
    HardFault_Handler                        0x08002911   Thumb Code     4  stm32f4xx_it.o(i.HardFault_Handler)
    KM_CtrlInit                              0x08002949   Thumb Code    48  km_ctrl.o(i.KM_CtrlInit)
    L_sun                                    0x08002a25   Thumb Code    56  lat_longitude.o(i.L_sun)
    MemManage_Handler                        0x08002a6d   Thumb Code     4  stm32f4xx_it.o(i.MemManage_Handler)
    MemStorage_Convert                       0x08002a71   Thumb Code    24  norflash.o(i.MemStorage_Convert)
    NMI_Handler                              0x08002a89   Thumb Code     2  stm32f4xx_it.o(i.NMI_Handler)
    NVIC_Init                                0x08002a8d   Thumb Code   106  misc.o(i.NVIC_Init)
    NVIC_PriorityGroupConfig                 0x08002b05   Thumb Code    10  misc.o(i.NVIC_PriorityGroupConfig)
    NetTimeCentury                           0x08002b19   Thumb Code   112  rtc.o(i.NetTimeCentury)
    NorFlashInit                             0x08002bad   Thumb Code    24  norflash.o(i.NorFlashInit)
    NorFlashRead                             0x08002bc9   Thumb Code    54  norflash.o(i.NorFlashRead)
    NorFlashWrite                            0x08002c05   Thumb Code    86  norflash.o(i.NorFlashWrite)
    PWR_BackupAccessCmd                      0x08002ca1   Thumb Code     6  stm32f4xx_pwr.o(i.PWR_BackupAccessCmd)
    Protocol_Response                        0x08002cad   Thumb Code   198  gateway_protocol.o(i.Protocol_Response)
    RCC_AHB1PeriphClockCmd                   0x08002d75   Thumb Code    26  stm32f4xx_rcc.o(i.RCC_AHB1PeriphClockCmd)
    RCC_AHB3PeriphClockCmd                   0x08002d95   Thumb Code    26  stm32f4xx_rcc.o(i.RCC_AHB3PeriphClockCmd)
    RCC_APB1PeriphClockCmd                   0x08002db5   Thumb Code    26  stm32f4xx_rcc.o(i.RCC_APB1PeriphClockCmd)
    RCC_APB2PeriphClockCmd                   0x08002dd5   Thumb Code    26  stm32f4xx_rcc.o(i.RCC_APB2PeriphClockCmd)
    RCC_GetClocksFreq                        0x08002df5   Thumb Code   214  stm32f4xx_rcc.o(i.RCC_GetClocksFreq)
    RCC_GetFlagStatus                        0x08002edd   Thumb Code    60  stm32f4xx_rcc.o(i.RCC_GetFlagStatus)
    RCC_LSEConfig                            0x08002f1d   Thumb Code    40  stm32f4xx_rcc.o(i.RCC_LSEConfig)
    RCC_RTCCLKCmd                            0x08002f49   Thumb Code     6  stm32f4xx_rcc.o(i.RCC_RTCCLKCmd)
    RCC_RTCCLKConfig                         0x08002f55   Thumb Code    50  stm32f4xx_rcc.o(i.RCC_RTCCLKConfig)
    RTC_EnterInitMode                        0x08002fc5   Thumb Code    76  stm32f4xx_rtc.o(i.RTC_EnterInitMode)
    RTC_ExitInitMode                         0x08003015   Thumb Code    14  stm32f4xx_rtc.o(i.RTC_ExitInitMode)
    RTC_GetDate                              0x08003029   Thumb Code    68  stm32f4xx_rtc.o(i.RTC_GetDate)
    RTC_GetTime                              0x08003075   Thumb Code    72  stm32f4xx_rtc.o(i.RTC_GetTime)
    RTC_Init                                 0x080030c5   Thumb Code    94  stm32f4xx_rtc.o(i.RTC_Init)
    RTC_ReadBackupRegister                   0x08003129   Thumb Code    26  stm32f4xx_rtc.o(i.RTC_ReadBackupRegister)
    RTC_SetDate                              0x08003149   Thumb Code   190  stm32f4xx_rtc.o(i.RTC_SetDate)
    RTC_SetTime                              0x08003211   Thumb Code   198  stm32f4xx_rtc.o(i.RTC_SetTime)
    RTC_WaitForSynchro                       0x080032e1   Thumb Code    92  stm32f4xx_rtc.o(i.RTC_WaitForSynchro)
    RTC_WriteBackupRegister                  0x08003341   Thumb Code    24  stm32f4xx_rtc.o(i.RTC_WriteBackupRegister)
    ReadRTC_Time                             0x0800335d   Thumb Code   116  rtc.o(i.ReadRTC_Time)
    RelinkTCP                                0x080033d5   Thumb Code    84  gsm.o(i.RelinkTCP)
    RtcInit                                  0x08003479   Thumb Code   120  rtc.o(i.RtcInit)
    SendMsgToSim                             0x080034f5   Thumb Code   136  gsm.o(i.SendMsgToSim)
    SimSendData                              0x080038f9   Thumb Code    94  gsm.o(i.SimSendData)
    SwitchToCommand                          0x08003971   Thumb Code    42  gsm.o(i.SwitchToCommand)
    SwitchToData                             0x080039b9   Thumb Code    30  gsm.o(i.SwitchToData)
    SystemInit                               0x080039fd   Thumb Code    88  system_stm32f4xx.o(i.SystemInit)
    UART4_IRQHandler                         0x08003c91   Thumb Code   132  ballast_comm.o(i.UART4_IRQHandler)
    USART1_IRQHandler                        0x08003d25   Thumb Code   132  electric.o(i.USART1_IRQHandler)
    USART3_IRQHandler                        0x08003db9   Thumb Code   328  gsm.o(i.USART3_IRQHandler)
    USART6_IRQHandler                        0x08003f19   Thumb Code   164  sys_debug.o(i.USART6_IRQHandler)
    USART_Cmd                                0x08003fd1   Thumb Code    24  stm32f4xx_usart.o(i.USART_Cmd)
    USART_DMACmd                             0x08003fe9   Thumb Code    18  stm32f4xx_usart.o(i.USART_DMACmd)
    USART_GetITStatus                        0x08003ffb   Thumb Code    84  stm32f4xx_usart.o(i.USART_GetITStatus)
    USART_ITConfig                           0x0800404f   Thumb Code    74  stm32f4xx_usart.o(i.USART_ITConfig)
    USART_Init                               0x08004099   Thumb Code   204  stm32f4xx_usart.o(i.USART_Init)
    USART_ReceiveData                        0x0800416d   Thumb Code    10  stm32f4xx_usart.o(i.USART_ReceiveData)
    UT_rise                                  0x08004177   Thumb Code    84  lat_longitude.o(i.UT_rise)
    UT_set                                   0x080041cb   Thumb Code    84  lat_longitude.o(i.UT_set)
    UartDebugHardwareInit                    0x08004275   Thumb Code   214  uart_debug.o(i.UartDebugHardwareInit)
    UartDebugInit                            0x08004355   Thumb Code    16  sys_debug.o(i.UartDebugInit)
    UpdataNetTime                            0x08004365   Thumb Code   408  rtc.o(i.UpdataNetTime)
    UsageFault_Handler                       0x08004529   Thumb Code     4  stm32f4xx_it.o(i.UsageFault_Handler)
    Zone                                     0x0800452d   Thumb Code    92  lat_longitude.o(i.Zone)
    __ARM_fpclassify                         0x08004599   Thumb Code    48  fpclassify.o(i.__ARM_fpclassify)
    __hardfp_acos                            0x080045c9   Thumb Code   738  acos.o(i.__hardfp_acos)
    __hardfp_asin                            0x08004921   Thumb Code   770  asin.o(i.__hardfp_asin)
    __hardfp_cos                             0x08004c81   Thumb Code   180  cos.o(i.__hardfp_cos)
    __hardfp_sin                             0x08004d49   Thumb Code   180  sin.o(i.__hardfp_sin)
    __ieee754_rem_pio2                       0x08004e11   Thumb Code   938  rred.o(i.__ieee754_rem_pio2)
    __kernel_cos                             0x08005249   Thumb Code   322  cos_i.o(i.__kernel_cos)
    __kernel_poly                            0x080053b9   Thumb Code   248  poly.o(i.__kernel_poly)
    __kernel_sin                             0x080054b1   Thumb Code   280  sin_i.o(i.__kernel_sin)
    __mathlib_dbl_infnan                     0x080055e1   Thumb Code    20  dunder.o(i.__mathlib_dbl_infnan)
    __mathlib_dbl_invalid                    0x080055f9   Thumb Code    24  dunder.o(i.__mathlib_dbl_invalid)
    __mathlib_dbl_underflow                  0x08005619   Thumb Code    24  dunder.o(i.__mathlib_dbl_underflow)
    _is_digit                                0x08005639   Thumb Code    14  __printf_wp.o(i._is_digit)
    _sys_exit                                0x08005647   Thumb Code     4  uart_debug.o(i._sys_exit)
    chr2hex                                  0x0800564b   Thumb Code    54  common.o(i.chr2hex)
    days                                     0x08005681   Thumb Code   100  lat_longitude.o(i.days)
    e                                        0x080056ed   Thumb Code   428  lat_longitude.o(i.e)
    earth_tilt                               0x080058b1   Thumb Code    56  lat_longitude.o(i.earth_tilt)
    ecliptic_longitude                       0x080058f9   Thumb Code   220  lat_longitude.o(i.ecliptic_longitude)
    fabs                                     0x080059fd   Thumb Code    24  fabs.o(i.fabs)
    fputc                                    0x08005a15   Thumb Code    24  uart_debug.o(i.fputc)
    get_glat                                 0x08005a31   Thumb Code   240  lat_longitude.o(i.get_glat)
    get_glong                                0x08005b41   Thumb Code   240  lat_longitude.o(i.get_glong)
    hex2chr                                  0x08005c51   Thumb Code    34  common.o(i.hex2chr)
    leap_year                                0x08005c73   Thumb Code    50  lat_longitude.o(i.leap_year)
    main                                     0x08005ca5   Thumb Code    50  main.o(i.main)
    pcTaskGetTaskName                        0x08005cd9   Thumb Code    20  tasks.o(i.pcTaskGetTaskName)
    printf_buff                              0x08005cf1   Thumb Code    80  sys_debug.o(i.printf_buff)
    printf_str                               0x08005d55   Thumb Code    66  sys_debug.o(i.printf_str)
    pvPortMalloc                             0x08006189   Thumb Code   164  heap_2.o(i.pvPortMalloc)
    pvTaskIncrementMutexHeldCount            0x08006241   Thumb Code    26  tasks.o(i.pvTaskIncrementMutexHeldCount)
    pxPortInitialiseStack                    0x08006261   Thumb Code    34  port.o(i.pxPortInitialiseStack)
    resule_convert                           0x08006289   Thumb Code   932  lat_longitude.o(i.resule_convert)
    result_rise                              0x08006649   Thumb Code   586  lat_longitude.o(i.result_rise)
    result_set                               0x080068a1   Thumb Code   586  lat_longitude.o(i.result_set)
    rise_set                                 0x08006af9   Thumb Code   988  lat_longitude.o(i.rise_set)
    sqrt                                     0x08006eed   Thumb Code   110  sqrt.o(i.sqrt)
    sun_deviation                            0x08006f5d   Thumb Code   164  lat_longitude.o(i.sun_deviation)
    t_century                                0x08007011   Thumb Code    80  lat_longitude.o(i.t_century)
    uxListRemove                             0x08007071   Thumb Code    40  list.o(i.uxListRemove)
    vApplicationStackOverflowHook            0x08007099   Thumb Code    34  freertos_hook.o(i.vApplicationStackOverflowHook)
    vApplicationTickHook                     0x080070e1   Thumb Code     2  freertos_hook.o(i.vApplicationTickHook)
    vListInitialise                          0x08007219   Thumb Code    26  list.o(i.vListInitialise)
    vListInitialiseItem                      0x08007233   Thumb Code     6  list.o(i.vListInitialiseItem)
    vListInsert                              0x08007239   Thumb Code    52  list.o(i.vListInsert)
    vListInsertEnd                           0x0800726d   Thumb Code    24  list.o(i.vListInsertEnd)
    vPortEnterCritical                       0x08007285   Thumb Code    30  port.o(i.vPortEnterCritical)
    vPortExitCritical                        0x080072a9   Thumb Code    28  port.o(i.vPortExitCritical)
    vPortFree                                0x080072c9   Thumb Code    56  heap_2.o(i.vPortFree)
    vPortSetupTimerInterrupt                 0x08007309   Thumb Code    14  port.o(i.vPortSetupTimerInterrupt)
    vTaskDelay                               0x0800731d   Thumb Code    84  tasks.o(i.vTaskDelay)
    vTaskMissedYield                         0x08007381   Thumb Code     8  tasks.o(i.vTaskMissedYield)
    vTaskPlaceOnEventList                    0x0800738d   Thumb Code    84  tasks.o(i.vTaskPlaceOnEventList)
    vTaskPriorityInherit                     0x080073f1   Thumb Code   164  tasks.o(i.vTaskPriorityInherit)
    vTaskSetTimeOutState                     0x080074a1   Thumb Code    14  tasks.o(i.vTaskSetTimeOutState)
    vTaskStartScheduler                      0x080074b9   Thumb Code    74  tasks.o(i.vTaskStartScheduler)
    vTaskSuspendAll                          0x0800751d   Thumb Code    12  tasks.o(i.vTaskSuspendAll)
    vTaskSwitchContext                       0x0800752d   Thumb Code   132  tasks.o(i.vTaskSwitchContext)
    xPortStartScheduler                      0x08007605   Thumb Code    58  port.o(i.xPortStartScheduler)
    xPortSysTickHandler                      0x0800764d   Thumb Code    48  port.o(i.xPortSysTickHandler)
    xQueueCreateMutex                        0x08007681   Thumb Code    72  queue.o(i.xQueueCreateMutex)
    xQueueGenericCreate                      0x080076c9   Thumb Code    70  queue.o(i.xQueueGenericCreate)
    xQueueGenericReceive                     0x08007711   Thumb Code   318  queue.o(i.xQueueGenericReceive)
    xQueueGenericReset                       0x08007855   Thumb Code   120  queue.o(i.xQueueGenericReset)
    xQueueGenericSend                        0x080078d1   Thumb Code   268  queue.o(i.xQueueGenericSend)
    xQueueGenericSendFromISR                 0x080079e1   Thumb Code   126  queue.o(i.xQueueGenericSendFromISR)
    xQueueGiveFromISR                        0x08007a5f   Thumb Code   110  queue.o(i.xQueueGiveFromISR)
    xTaskCheckForTimeOut                     0x08007acd   Thumb Code    84  tasks.o(i.xTaskCheckForTimeOut)
    xTaskGenericCreate                       0x08007b29   Thumb Code   236  tasks.o(i.xTaskGenericCreate)
    xTaskGetCurrentTaskHandle                0x08007c31   Thumb Code     6  tasks.o(i.xTaskGetCurrentTaskHandle)
    xTaskGetTickCount                        0x08007c3d   Thumb Code     6  tasks.o(i.xTaskGetTickCount)
    xTaskIncrementTick                       0x08007c49   Thumb Code   256  tasks.o(i.xTaskIncrementTick)
    xTaskPriorityDisinherit                  0x08007d75   Thumb Code   122  tasks.o(i.xTaskPriorityDisinherit)
    xTaskRemoveFromEventList                 0x08007df9   Thumb Code   104  tasks.o(i.xTaskRemoveFromEventList)
    xTaskResumeAll                           0x08007e79   Thumb Code   196  tasks.o(i.xTaskResumeAll)
    zigbee_config                            0x08007f61   Thumb Code     2  gateway_protocol.o(i.zigbee_config)
    _get_lc_ctype                            0x08007f65   Thumb Code    44  lc_ctype_c.o(locale$$code)
    __aeabi_dneg                             0x08007f91   Thumb Code     0  basic.o(x$fpl$basic)
    _dneg                                    0x08007f91   Thumb Code     6  basic.o(x$fpl$basic)
    __aeabi_fneg                             0x08007f97   Thumb Code     0  basic.o(x$fpl$basic)
    _fneg                                    0x08007f97   Thumb Code     6  basic.o(x$fpl$basic)
    _dabs                                    0x08007f9d   Thumb Code     6  basic.o(x$fpl$basic)
    _fabs                                    0x08007fa3   Thumb Code     6  basic.o(x$fpl$basic)
    __aeabi_dadd                             0x08007fa9   Thumb Code     0  daddsub_clz.o(x$fpl$dadd)
    _dadd                                    0x08007fa9   Thumb Code   332  daddsub_clz.o(x$fpl$dadd)
    __fpl_dcmp_Inf                           0x080080f9   Thumb Code    24  dcmpi.o(x$fpl$dcmpinf)
    __aeabi_ddiv                             0x08008111   Thumb Code     0  ddiv.o(x$fpl$ddiv)
    _ddiv                                    0x08008111   Thumb Code   552  ddiv.o(x$fpl$ddiv)
    __aeabi_d2iz                             0x080083c1   Thumb Code     0  dfix.o(x$fpl$dfix)
    _dfix                                    0x080083c1   Thumb Code    94  dfix.o(x$fpl$dfix)
    __aeabi_d2uiz                            0x08008421   Thumb Code     0  dfixu.o(x$fpl$dfixu)
    _dfixu                                   0x08008421   Thumb Code    90  dfixu.o(x$fpl$dfixu)
    __aeabi_i2d                              0x0800847b   Thumb Code     0  dflt_clz.o(x$fpl$dflt)
    _dflt                                    0x0800847b   Thumb Code    46  dflt_clz.o(x$fpl$dflt)
    __aeabi_ui2d                             0x080084a9   Thumb Code     0  dflt_clz.o(x$fpl$dfltu)
    _dfltu                                   0x080084a9   Thumb Code    38  dflt_clz.o(x$fpl$dfltu)
    __aeabi_cdcmple                          0x080084d1   Thumb Code     0  dleqf.o(x$fpl$dleqf)
    _dcmple                                  0x080084d1   Thumb Code   120  dleqf.o(x$fpl$dleqf)
    __fpl_dcmple_InfNaN                      0x08008533   Thumb Code     0  dleqf.o(x$fpl$dleqf)
    __aeabi_dmul                             0x08008549   Thumb Code     0  dmul.o(x$fpl$dmul)
    _dmul                                    0x08008549   Thumb Code   332  dmul.o(x$fpl$dmul)
    __fpl_dnaninf                            0x0800869d   Thumb Code   156  dnaninf.o(x$fpl$dnaninf)
    __fpl_dretinf                            0x08008739   Thumb Code    12  dretinf.o(x$fpl$dretinf)
    __aeabi_cdrcmple                         0x08008745   Thumb Code     0  drleqf.o(x$fpl$drleqf)
    _drcmple                                 0x08008745   Thumb Code   108  drleqf.o(x$fpl$drleqf)
    __aeabi_drsub                            0x080087b1   Thumb Code     0  daddsub_clz.o(x$fpl$drsb)
    _drsb                                    0x080087b1   Thumb Code    22  daddsub_clz.o(x$fpl$drsb)
    _dsqrt                                   0x080087c9   Thumb Code   404  dsqrt_umaal.o(x$fpl$dsqrt)
    __aeabi_dsub                             0x08008961   Thumb Code     0  daddsub_clz.o(x$fpl$dsub)
    _dsub                                    0x08008961   Thumb Code   464  daddsub_clz.o(x$fpl$dsub)
    _fp_init                                 0x08008b35   Thumb Code    10  fpinit.o(x$fpl$fpinit)
    __fplib_config_fpu_vfp                   0x08008b3d   Thumb Code     0  fpinit.o(x$fpl$fpinit)
    __fplib_config_pureend_doubles           0x08008b3d   Thumb Code     0  fpinit.o(x$fpl$fpinit)
    __I$use$fp                               0x08008b3e   Number         0  usenofp.o(x$fpl$usenofp)
    Region$$Table$$Base                      0x08008e68   Number         0  anon$$obj.o(Region$$Table)
    Region$$Table$$Limit                     0x08008e88   Number         0  anon$$obj.o(Region$$Table)
    __ctype                                  0x08008e95   Data           0  lc_ctype_c.o(locale$$data)
    LampDataTempBuff                         0x10000000   Data       50000  ballast_protocol.o(.ARM.__AT_0x10000000)
    LampAttrSortTable                        0x1000c350   Data        6000  ballast_protocol.o(.ARM.__AT_0x1000C350)
    LampRunCtrlTable                         0x1000dac0   Data        6000  ballast_protocol.o(.ARM.__AT_0x1000DAC0)
    ballastComm1Tx_semaphore                 0x20000010   Data           4  ballast_comm.o(.data)
    EleTx_semaphore                          0x20000018   Data           4  electric.o(.data)
    GsmTx_semaphore                          0x20000020   Data           4  gsm.o(.data)
    GPRS_ConnectState                        0x2000002c   Data           1  gsm.o(.data)
    FrameType_Flag                           0x2000002d   Data           1  gsm.o(.data)
    DebugMode                                0x20000038   Data           1  sys_debug.o(.data)
    TestMode                                 0x2000003c   Data           4  sys_debug.o(.data)
    TestModeFlag                             0x20000040   Data           1  sys_debug.o(.data)
    h                                        0x20000048   Data           8  lat_longitude.o(.data)
    sun_rise                                 0x20000050   Data           8  lat_longitude.o(.data)
    sun_set                                  0x20000058   Data           8  lat_longitude.o(.data)
    sun_time_rise                            0x20000060   Data           8  lat_longitude.o(.data)
    sun_time_set                             0x20000068   Data           8  lat_longitude.o(.data)
    days_of_month_1                          0x20000070   Data          48  lat_longitude.o(.data)
    days_of_month_2                          0x200000a0   Data          48  lat_longitude.o(.data)
    pxCurrentTCB                             0x200000ec   Data           4  tasks.o(.data)
    NVIC_InitStructure                       0x20000128   Data           4  rtc.o(.data)
    __stdout                                 0x20000130   Data           4  uart_debug.o(.data)
    BallastComm1RxData                       0x20000134   Data         102  ballast_comm.o(.bss)
    BallastComm1TxData                       0x2000019a   Data         102  ballast_comm.o(.bss)
    EleTxData                                0x20000200   Data         102  electric.o(.bss)
    EleRxData                                0x20000266   Data         102  electric.o(.bss)
    WG_ServerParameter                       0x200002cc   Data          22  gsm.o(.bss)
    ManagementAddr                           0x200002e2   Data          10  gsm.o(.bss)
    GsmTxData                                0x200002ec   Data         202  gsm.o(.bss)
    GsmRxData                                0x200003b6   Data         202  gsm.o(.bss)
    DebugRxData                              0x20000480   Data          52  sys_debug.o(.bss)
    sun_rise_set                             0x200004b4   Data          16  lat_longitude.o(.bss)
    time                                     0x2001e58c   Data          28  rtc.o(.bss)
    __libspace_start                         0x2001e5a8   Data          96  libspace.o(.bss)
    __temporary_stack_top$libspace           0x2001e608   Data           0  libspace.o(.bss)



==============================================================================

Memory Map of the image

  Image Entry point : 0x08000189

  Load Region LR_IROM1 (Base: 0x08000000, Size: 0x000090cc, Max: 0x00100000, ABSOLUTE, COMPRESSED[0x00008fd0])

    Execution Region ER_IROM1 (Base: 0x08000000, Size: 0x00008f98, Max: 0x00100000, ABSOLUTE)

    Base Addr    Size         Type   Attr      Idx    E Section Name        Object

    0x08000000   0x00000188   Data   RO            3    RESET               startup_stm32f40_41xxx.o
    0x08000188   0x00000008   Code   RO         3864  * !!!main             c_w.l(__main.o)
    0x08000190   0x00000034   Code   RO         4207    !!!scatter          c_w.l(__scatter.o)
    0x080001c4   0x0000005a   Code   RO         4205    !!dczerorl2         c_w.l(__dczerorl2.o)
    0x0800021e   0x00000002   PAD
    0x08000220   0x0000001c   Code   RO         4209    !!handler_zi        c_w.l(__scatter_zi.o)
    0x0800023c   0x00000000   Code   RO         3839    .ARM.Collect$$_printf_percent$$00000000  c_w.l(_printf_percent.o)
    0x0800023c   0x00000006   Code   RO         3838    .ARM.Collect$$_printf_percent$$00000014  c_w.l(_printf_s.o)
    0x08000242   0x00000004   Code   RO         3959    .ARM.Collect$$_printf_percent$$00000017  c_w.l(_printf_percent_end.o)
    0x08000246   0x00000002   Code   RO         4075    .ARM.Collect$$libinit$$00000000  c_w.l(libinit.o)
    0x08000248   0x00000004   Code   RO         4086    .ARM.Collect$$libinit$$00000001  c_w.l(libinit2.o)
    0x0800024c   0x00000000   Code   RO         4089    .ARM.Collect$$libinit$$00000004  c_w.l(libinit2.o)
    0x0800024c   0x00000000   Code   RO         4092    .ARM.Collect$$libinit$$0000000A  c_w.l(libinit2.o)
    0x0800024c   0x00000000   Code   RO         4094    .ARM.Collect$$libinit$$0000000C  c_w.l(libinit2.o)
    0x0800024c   0x00000000   Code   RO         4096    .ARM.Collect$$libinit$$0000000E  c_w.l(libinit2.o)
    0x0800024c   0x00000006   Code   RO         4097    .ARM.Collect$$libinit$$0000000F  c_w.l(libinit2.o)
    0x08000252   0x00000000   Code   RO         4099    .ARM.Collect$$libinit$$00000011  c_w.l(libinit2.o)
    0x08000252   0x0000000c   Code   RO         4100    .ARM.Collect$$libinit$$00000012  c_w.l(libinit2.o)
    0x0800025e   0x00000000   Code   RO         4101    .ARM.Collect$$libinit$$00000013  c_w.l(libinit2.o)
    0x0800025e   0x00000000   Code   RO         4103    .ARM.Collect$$libinit$$00000015  c_w.l(libinit2.o)
    0x0800025e   0x00000000   Code   RO         4105    .ARM.Collect$$libinit$$00000017  c_w.l(libinit2.o)
    0x0800025e   0x00000000   Code   RO         4107    .ARM.Collect$$libinit$$00000019  c_w.l(libinit2.o)
    0x0800025e   0x00000000   Code   RO         4109    .ARM.Collect$$libinit$$0000001B  c_w.l(libinit2.o)
    0x0800025e   0x00000000   Code   RO         4111    .ARM.Collect$$libinit$$0000001D  c_w.l(libinit2.o)
    0x0800025e   0x00000000   Code   RO         4113    .ARM.Collect$$libinit$$0000001F  c_w.l(libinit2.o)
    0x0800025e   0x00000000   Code   RO         4115    .ARM.Collect$$libinit$$00000021  c_w.l(libinit2.o)
    0x0800025e   0x00000000   Code   RO         4117    .ARM.Collect$$libinit$$00000023  c_w.l(libinit2.o)
    0x0800025e   0x00000000   Code   RO         4119    .ARM.Collect$$libinit$$00000025  c_w.l(libinit2.o)
    0x0800025e   0x00000000   Code   RO         4123    .ARM.Collect$$libinit$$0000002C  c_w.l(libinit2.o)
    0x0800025e   0x00000000   Code   RO         4125    .ARM.Collect$$libinit$$0000002E  c_w.l(libinit2.o)
    0x0800025e   0x00000000   Code   RO         4127    .ARM.Collect$$libinit$$00000030  c_w.l(libinit2.o)
    0x0800025e   0x00000000   Code   RO         4129    .ARM.Collect$$libinit$$00000032  c_w.l(libinit2.o)
    0x0800025e   0x00000002   Code   RO         4130    .ARM.Collect$$libinit$$00000033  c_w.l(libinit2.o)
    0x08000260   0x00000002   Code   RO         4148    .ARM.Collect$$libshutdown$$00000000  c_w.l(libshutdown.o)
    0x08000262   0x00000000   Code   RO         4159    .ARM.Collect$$libshutdown$$00000003  c_w.l(libshutdown2.o)
    0x08000262   0x00000000   Code   RO         4162    .ARM.Collect$$libshutdown$$00000006  c_w.l(libshutdown2.o)
    0x08000262   0x00000000   Code   RO         4165    .ARM.Collect$$libshutdown$$00000009  c_w.l(libshutdown2.o)
    0x08000262   0x00000000   Code   RO         4167    .ARM.Collect$$libshutdown$$0000000B  c_w.l(libshutdown2.o)
    0x08000262   0x00000000   Code   RO         4170    .ARM.Collect$$libshutdown$$0000000E  c_w.l(libshutdown2.o)
    0x08000262   0x00000002   Code   RO         4171    .ARM.Collect$$libshutdown$$0000000F  c_w.l(libshutdown2.o)
    0x08000264   0x00000000   Code   RO         3948    .ARM.Collect$$rtentry$$00000000  c_w.l(__rtentry.o)
    0x08000264   0x00000000   Code   RO         4028    .ARM.Collect$$rtentry$$00000002  c_w.l(__rtentry2.o)
    0x08000264   0x00000006   Code   RO         4040    .ARM.Collect$$rtentry$$00000004  c_w.l(__rtentry4.o)
    0x0800026a   0x00000000   Code   RO         4030    .ARM.Collect$$rtentry$$00000009  c_w.l(__rtentry2.o)
    0x0800026a   0x00000004   Code   RO         4031    .ARM.Collect$$rtentry$$0000000A  c_w.l(__rtentry2.o)
    0x0800026e   0x00000000   Code   RO         4033    .ARM.Collect$$rtentry$$0000000C  c_w.l(__rtentry2.o)
    0x0800026e   0x00000008   Code   RO         4034    .ARM.Collect$$rtentry$$0000000D  c_w.l(__rtentry2.o)
    0x08000276   0x00000002   Code   RO         4076    .ARM.Collect$$rtexit$$00000000  c_w.l(rtexit.o)
    0x08000278   0x00000000   Code   RO         4132    .ARM.Collect$$rtexit$$00000002  c_w.l(rtexit2.o)
    0x08000278   0x00000004   Code   RO         4133    .ARM.Collect$$rtexit$$00000003  c_w.l(rtexit2.o)
    0x0800027c   0x00000006   Code   RO         4134    .ARM.Collect$$rtexit$$00000004  c_w.l(rtexit2.o)
    0x08000282   0x00000002   PAD
    0x08000284   0x000000b6   Code   RO         2988    .emb_text           port.o
    0x0800033a   0x00000002   PAD
    0x0800033c   0x00000040   Code   RO            4    .text               startup_stm32f40_41xxx.o
    0x0800037c   0x00000002   Code   RO         3804    .text               c_w.l(use_no_semi_2.o)
    0x0800037e   0x00000002   PAD
    0x08000380   0x00000018   Code   RO         3810    .text               c_w.l(noretval__2printf.o)
    0x08000398   0x00000028   Code   RO         3812    .text               c_w.l(noretval__2sprintf.o)
    0x080003c0   0x00000052   Code   RO         3816    .text               c_w.l(_printf_str.o)
    0x08000412   0x0000010e   Code   RO         3826    .text               c_w.l(__printf_wp.o)
    0x08000520   0x0000003c   Code   RO         3840    .text               c_w.l(__0sscanf.o)
    0x0800055c   0x0000014c   Code   RO         3842    .text               c_w.l(_scanf_int.o)
    0x080006a8   0x000000e0   Code   RO         3844    .text               c_w.l(_scanf_str.o)
    0x08000788   0x00000024   Code   RO         3846    .text               c_w.l(strstr.o)
    0x080007ac   0x0000003e   Code   RO         3848    .text               c_w.l(strlen.o)
    0x080007ea   0x0000008a   Code   RO         3850    .text               c_w.l(rt_memcpy_v6.o)
    0x08000874   0x00000010   Code   RO         3852    .text               c_w.l(aeabi_memset.o)
    0x08000884   0x00000044   Code   RO         3854    .text               c_w.l(rt_memclr.o)
    0x080008c8   0x0000004e   Code   RO         3856    .text               c_w.l(rt_memclr_w.o)
    0x08000916   0x00000056   Code   RO         3858    .text               c_w.l(strncpy.o)
    0x0800096c   0x00000080   Code   RO         3860    .text               c_w.l(strcmpv7m.o)
    0x080009ec   0x00000006   Code   RO         3862    .text               c_w.l(heapauxi.o)
    0x080009f2   0x00000002   Code   RO         3946    .text               c_w.l(use_no_semi.o)
    0x080009f4   0x00000016   Code   RO         3949    .text               c_w.l(_rserrno.o)
    0x08000a0a   0x00000002   PAD
    0x08000a0c   0x00000030   Code   RO         3951    .text               c_w.l(_printf_char_common.o)
    0x08000a3c   0x0000000a   Code   RO         3953    .text               c_w.l(_sputc.o)
    0x08000a46   0x0000002c   Code   RO         3955    .text               c_w.l(_printf_char.o)
    0x08000a72   0x00000002   PAD
    0x08000a74   0x00000024   Code   RO         3957    .text               c_w.l(_printf_char_file.o)
    0x08000a98   0x0000001c   Code   RO         3960    .text               c_w.l(_chval.o)
    0x08000ab4   0x0000002c   Code   RO         3962    .text               c_w.l(scanf_char.o)
    0x08000ae0   0x00000040   Code   RO         3964    .text               c_w.l(_sgetc.o)
    0x08000b20   0x00000064   Code   RO         3966    .text               c_w.l(rt_memcpy_w.o)
    0x08000b84   0x00000008   Code   RO         4045    .text               c_w.l(rt_errno_addr_intlibspace.o)
    0x08000b8c   0x00000012   Code   RO         4047    .text               c_w.l(isspace.o)
    0x08000b9e   0x00000002   PAD
    0x08000ba0   0x00000374   Code   RO         4051    .text               c_w.l(_scanf.o)
    0x08000f14   0x00000008   Code   RO         4053    .text               c_w.l(ferror.o)
    0x08000f1c   0x00000008   Code   RO         4061    .text               c_w.l(libspace.o)
    0x08000f24   0x0000004a   Code   RO         4064    .text               c_w.l(sys_stackheap_outer.o)
    0x08000f6e   0x00000002   PAD
    0x08000f70   0x00000010   Code   RO         4066    .text               c_w.l(rt_ctype_table.o)
    0x08000f80   0x0000000c   Code   RO         4068    .text               c_w.l(exit.o)
    0x08000f8c   0x00000008   Code   RO         4081    .text               c_w.l(rt_locale_intlibspace.o)
    0x08000f94   0x00000002   Code   RO         2733    i.AllTableInit      ballast_protocol.o
    0x08000f96   0x0000001e   Code   RO         2763    i.BCC_CheckSum      common.o
    0x08000fb4   0x0000000c   Code   RO         2132    i.BallastComm1InitHardware  ballast_comm.o
    0x08000fc0   0x00000030   Code   RO         2133    i.BallastComm1RxTxDataInit  ballast_comm.o
    0x08000ff0   0x00000078   Code   RO         2134    i.BallastCommInit   ballast_comm.o
    0x08001068   0x00000014   Code   RO         2135    i.BallastRxDataClear  ballast_comm.o
    0x0800107c   0x000000b0   Code   RO         2136    i.BallastUartInit   ballast_comm.o
    0x0800112c   0x000000a4   Code   RO         2137    i.Ballast_TX_DMA_Init  ballast_comm.o
    0x080011d0   0x00000016   Code   RO         2764    i.Bcd2ToByte        common.o
    0x080011e6   0x00000004   Code   RO           13    i.BusFault_Handler  stm32f4xx_it.o
    0x080011ea   0x00000080   Code   RO         3564    i.CaculateWeekDay   rtc.o
    0x0800126a   0x00000002   PAD
    0x0800126c   0x0000004c   Code   RO         2335    i.DMA1_Stream3_IRQHandler  gsm.o
    0x080012b8   0x00000028   Code   RO         2138    i.DMA1_Stream4_IRQHandler  ballast_comm.o
    0x080012e0   0x0000002c   Code   RO         2242    i.DMA2_Stream7_IRQHandler  electric.o
    0x0800130c   0x00000034   Code   RO         1929    i.DMA_ClearFlag     stm32f4xx_dma.o
    0x08001340   0x00000016   Code   RO         1931    i.DMA_Cmd           stm32f4xx_dma.o
    0x08001356   0x00000002   PAD
    0x08001358   0x00000158   Code   RO         1932    i.DMA_DeInit        stm32f4xx_dma.o
    0x080014b0   0x00000014   Code   RO         1936    i.DMA_GetCmdStatus  stm32f4xx_dma.o
    0x080014c4   0x00000044   Code   RO         1940    i.DMA_GetFlagStatus  stm32f4xx_dma.o
    0x08001508   0x0000003a   Code   RO         1942    i.DMA_ITConfig      stm32f4xx_dma.o
    0x08001542   0x00000002   PAD
    0x08001544   0x00000058   Code   RO         1943    i.DMA_Init          stm32f4xx_dma.o
    0x0800159c   0x00000004   Code   RO         1946    i.DMA_SetCurrDataCounter  stm32f4xx_dma.o
    0x080015a0   0x00000002   Code   RO           14    i.DebugMon_Handler  stm32f4xx_it.o
    0x080015a2   0x00000002   PAD
    0x080015a4   0x0000001c   Code   RO         2576    i.DebugRxDataInit   sys_debug.o
    0x080015c0   0x00000030   Code   RO         2244    i.EleRxTxDataInit   electric.o
    0x080015f0   0x00000070   Code   RO         2245    i.ElectricInit      electric.o
    0x08001660   0x00000014   Code   RO         2246    i.ElectricRxDataClear  electric.o
    0x08001674   0x000000b0   Code   RO         2247    i.ElectricUartInit  electric.o
    0x08001724   0x000000a4   Code   RO         2248    i.Electric_TX_DMA_Init  electric.o
    0x080017c8   0x0000000c   Code   RO         2249    i.ElectrolHardwareInit  electric.o
    0x080017d4   0x00000034   Code   RO         1441    i.FSMC_NORSRAMCmd   stm32f4xx_fsmc.o
    0x08001808   0x00000128   Code   RO         1443    i.FSMC_NORSRAMInit  stm32f4xx_fsmc.o
    0x08001930   0x00000038   Code   RO         3618    i.FSMC_NOR_EraseSector  fsmc_nor.o
    0x08001968   0x0000004c   Code   RO         3619    i.FSMC_NOR_GetStatus  fsmc_nor.o
    0x080019b4   0x0000029c   Code   RO         3620    i.FSMC_NOR_Init     fsmc_nor.o
    0x08001c50   0x00000034   Code   RO         3621    i.FSMC_NOR_ReadBuffer  fsmc_nor.o
    0x08001c84   0x00000026   Code   RO         3626    i.FSMC_NOR_WriteBuffer  fsmc_nor.o
    0x08001caa   0x00000002   PAD
    0x08001cac   0x00000030   Code   RO         3627    i.FSMC_NOR_WriteHalfWord  fsmc_nor.o
    0x08001cdc   0x00000230   Code   RO         2847    i.GHA               lat_longitude.o
    0x08001f0c   0x00000090   Code   RO          415    i.GPIO_Init         stm32f4xx_gpio.o
    0x08001f9c   0x00000046   Code   RO          416    i.GPIO_PinAFConfig  stm32f4xx_gpio.o
    0x08001fe2   0x00000004   Code   RO          422    i.GPIO_ResetBits    stm32f4xx_gpio.o
    0x08001fe6   0x00000004   Code   RO          423    i.GPIO_SetBits      stm32f4xx_gpio.o
    0x08001fea   0x00000002   PAD
    0x08001fec   0x00000064   Code   RO         2336    i.GSMInit           gsm.o
    0x08002050   0x00000010   Code   RO         2337    i.GSMInitHardware   gsm.o
    0x08002060   0x00000034   Code   RO         2338    i.GSM_CtrlPinInit   gsm.o
    0x08002094   0x00000094   Code   RO         2339    i.GSM_ModuleStart   gsm.o
    0x08002128   0x000000a4   Code   RO         2340    i.GSM_TX_DMA_Init   gsm.o
    0x080021cc   0x000000b4   Code   RO         2341    i.GSM_USART_Init    gsm.o
    0x08002280   0x00000048   Code   RO         2848    i.G_sun             lat_longitude.o
    0x080022c8   0x000000d8   Code   RO         2577    i.GatewaySetDebug   sys_debug.o
    0x080023a0   0x00000080   Code   RO         2342    i.GsmDMA_TxBuff     gsm.o
    0x08002420   0x00000014   Code   RO         2343    i.GsmRxDataClear    gsm.o
    0x08002434   0x0000001a   Code   RO         2344    i.GsmRxDataInput    gsm.o
    0x0800244e   0x00000002   PAD
    0x08002450   0x00000030   Code   RO         2345    i.GsmRxTxDataInit   gsm.o
    0x08002480   0x0000039c   Code   RO         2346    i.GsmStartConnect   gsm.o
    0x0800281c   0x000000d8   Code   RO         2669    i.HandleGatewayParam  gateway_protocol.o
    0x080028f4   0x00000002   Code   RO         2670    i.HandleLightDimmer  gateway_protocol.o
    0x080028f6   0x00000002   Code   RO         2671    i.HandleLightOnOff  gateway_protocol.o
    0x080028f8   0x00000016   Code   RO         2672    i.HandleLightParam  gateway_protocol.o
    0x0800290e   0x00000002   Code   RO         2673    i.HandleStrategyDownload  gateway_protocol.o
    0x08002910   0x00000004   Code   RO           15    i.HardFault_Handler  stm32f4xx_it.o
    0x08002914   0x00000034   Code   RO         2347    i.HeartRemainTCPConnect  gsm.o
    0x08002948   0x00000044   Code   RO         2811    i.KM_CtrlInit       km_ctrl.o
    0x0800298c   0x00000080   Code   RO         2812    i.KM_HardwareInit   km_ctrl.o
    0x08002a0c   0x00000018   Code   RO         2813    i.KM_vCtrlTask      km_ctrl.o
    0x08002a24   0x00000048   Code   RO         2849    i.L_sun             lat_longitude.o
    0x08002a6c   0x00000004   Code   RO           16    i.MemManage_Handler  stm32f4xx_it.o
    0x08002a70   0x00000018   Code   RO         3706    i.MemStorage_Convert  norflash.o
    0x08002a88   0x00000002   Code   RO           17    i.NMI_Handler       stm32f4xx_it.o
    0x08002a8a   0x00000002   PAD
    0x08002a8c   0x00000078   Code   RO          216    i.NVIC_Init         misc.o
    0x08002b04   0x00000014   Code   RO          217    i.NVIC_PriorityGroupConfig  misc.o
    0x08002b18   0x00000094   Code   RO         3565    i.NetTimeCentury    rtc.o
    0x08002bac   0x0000001c   Code   RO         3709    i.NorFlashInit      norflash.o
    0x08002bc8   0x0000003c   Code   RO         3710    i.NorFlashRead      norflash.o
    0x08002c04   0x0000009c   Code   RO         3711    i.NorFlashWrite     norflash.o
    0x08002ca0   0x0000000c   Code   RO          519    i.PWR_BackupAccessCmd  stm32f4xx_pwr.o
    0x08002cac   0x000000c6   Code   RO         2674    i.Protocol_Response  gateway_protocol.o
    0x08002d72   0x00000002   PAD
    0x08002d74   0x00000020   Code   RO          633    i.RCC_AHB1PeriphClockCmd  stm32f4xx_rcc.o
    0x08002d94   0x00000020   Code   RO          639    i.RCC_AHB3PeriphClockCmd  stm32f4xx_rcc.o
    0x08002db4   0x00000020   Code   RO          642    i.RCC_APB1PeriphClockCmd  stm32f4xx_rcc.o
    0x08002dd4   0x00000020   Code   RO          645    i.RCC_APB2PeriphClockCmd  stm32f4xx_rcc.o
    0x08002df4   0x000000e8   Code   RO          654    i.RCC_GetClocksFreq  stm32f4xx_rcc.o
    0x08002edc   0x00000040   Code   RO          655    i.RCC_GetFlagStatus  stm32f4xx_rcc.o
    0x08002f1c   0x0000002c   Code   RO          663    i.RCC_LSEConfig     stm32f4xx_rcc.o
    0x08002f48   0x0000000c   Code   RO          677    i.RCC_RTCCLKCmd     stm32f4xx_rcc.o
    0x08002f54   0x0000003c   Code   RO          678    i.RCC_RTCCLKConfig  stm32f4xx_rcc.o
    0x08002f90   0x00000016   Code   RO         1571    i.RTC_Bcd2ToByte    stm32f4xx_rtc.o
    0x08002fa6   0x0000001c   Code   RO         1573    i.RTC_ByteToBcd2    stm32f4xx_rtc.o
    0x08002fc2   0x00000002   PAD
    0x08002fc4   0x00000050   Code   RO         1583    i.RTC_EnterInitMode  stm32f4xx_rtc.o
    0x08003014   0x00000014   Code   RO         1584    i.RTC_ExitInitMode  stm32f4xx_rtc.o
    0x08003028   0x0000004c   Code   RO         1587    i.RTC_GetDate       stm32f4xx_rtc.o
    0x08003074   0x00000050   Code   RO         1592    i.RTC_GetTime       stm32f4xx_rtc.o
    0x080030c4   0x00000064   Code   RO         1597    i.RTC_Init          stm32f4xx_rtc.o
    0x08003128   0x00000020   Code   RO         1600    i.RTC_ReadBackupRegister  stm32f4xx_rtc.o
    0x08003148   0x000000c8   Code   RO         1603    i.RTC_SetDate       stm32f4xx_rtc.o
    0x08003210   0x000000d0   Code   RO         1604    i.RTC_SetTime       stm32f4xx_rtc.o
    0x080032e0   0x00000060   Code   RO         1620    i.RTC_WaitForSynchro  stm32f4xx_rtc.o
    0x08003340   0x0000001c   Code   RO         1623    i.RTC_WriteBackupRegister  stm32f4xx_rtc.o
    0x0800335c   0x00000078   Code   RO         3566    i.ReadRTC_Time      rtc.o
    0x080033d4   0x000000a4   Code   RO         2348    i.RelinkTCP         gsm.o
    0x08003478   0x0000007c   Code   RO         3567    i.RtcInit           rtc.o
    0x080034f4   0x000000a0   Code   RO         2349    i.SendMsgToSim      gsm.o
    0x08003594   0x000001a8   Code   RO         2578    i.SetSeriveIPPort   sys_debug.o
    0x0800373c   0x000000ec   Code   RO          175    i.SetSysClock       system_stm32f4xx.o
    0x08003828   0x000000d0   Code   RO         2579    i.SetWGAddr         sys_debug.o
    0x080038f8   0x00000078   Code   RO         2350    i.SimSendData       gsm.o
    0x08003970   0x00000048   Code   RO         2351    i.SwitchToCommand   gsm.o
    0x080039b8   0x00000044   Code   RO         2352    i.SwitchToData      gsm.o
    0x080039fc   0x00000068   Code   RO          177    i.SystemInit        system_stm32f4xx.o
    0x08003a64   0x00000002   Code   RO         2580    i.TaskPrintfDebug   sys_debug.o
    0x08003a66   0x00000002   PAD
    0x08003a68   0x00000228   Code   RO         2581    i.TestModeMain      sys_debug.o
    0x08003c90   0x00000094   Code   RO         2139    i.UART4_IRQHandler  ballast_comm.o
    0x08003d24   0x00000094   Code   RO         2250    i.USART1_IRQHandler  electric.o
    0x08003db8   0x00000160   Code   RO         2353    i.USART3_IRQHandler  gsm.o
    0x08003f18   0x000000b8   Code   RO         2582    i.USART6_IRQHandler  sys_debug.o
    0x08003fd0   0x00000018   Code   RO          978    i.USART_Cmd         stm32f4xx_usart.o
    0x08003fe8   0x00000012   Code   RO          979    i.USART_DMACmd      stm32f4xx_usart.o
    0x08003ffa   0x00000054   Code   RO          982    i.USART_GetITStatus  stm32f4xx_usart.o
    0x0800404e   0x0000004a   Code   RO          984    i.USART_ITConfig    stm32f4xx_usart.o
    0x08004098   0x000000d4   Code   RO          985    i.USART_Init        stm32f4xx_usart.o
    0x0800416c   0x0000000a   Code   RO          992    i.USART_ReceiveData  stm32f4xx_usart.o
    0x08004176   0x00000054   Code   RO         2850    i.UT_rise           lat_longitude.o
    0x080041ca   0x00000054   Code   RO         2851    i.UT_set            lat_longitude.o
    0x0800421e   0x00000002   PAD
    0x08004220   0x00000054   Code   RO         2583    i.UartDebugCreateTask  sys_debug.o
    0x08004274   0x000000e0   Code   RO         3762    i.UartDebugHardwareInit  uart_debug.o
    0x08004354   0x00000010   Code   RO         2584    i.UartDebugInit     sys_debug.o
    0x08004364   0x000001c4   Code   RO         3568    i.UpdataNetTime     rtc.o
    0x08004528   0x00000004   Code   RO           18    i.UsageFault_Handler  stm32f4xx_it.o
    0x0800452c   0x0000006c   Code   RO         2852    i.Zone              lat_longitude.o
    0x08004598   0x00000030   Code   RO         4000    i.__ARM_fpclassify  m_wm.l(fpclassify.o)
    0x080045c8   0x00000358   Code   RO         3894    i.__hardfp_acos     m_wm.l(acos.o)
    0x08004920   0x00000360   Code   RO         3908    i.__hardfp_asin     m_wm.l(asin.o)
    0x08004c80   0x000000c8   Code   RO         3922    i.__hardfp_cos      m_wm.l(cos.o)
    0x08004d48   0x000000c8   Code   RO         3934    i.__hardfp_sin      m_wm.l(sin.o)
    0x08004e10   0x00000438   Code   RO         4004    i.__ieee754_rem_pio2  m_wm.l(rred.o)
    0x08005248   0x00000170   Code   RO         3977    i.__kernel_cos      m_wm.l(cos_i.o)
    0x080053b8   0x000000f8   Code   RO         4002    i.__kernel_poly     m_wm.l(poly.o)
    0x080054b0   0x00000130   Code   RO         4009    i.__kernel_sin      m_wm.l(sin_i.o)
    0x080055e0   0x00000014   Code   RO         3981    i.__mathlib_dbl_infnan  m_wm.l(dunder.o)
    0x080055f4   0x00000004   PAD
    0x080055f8   0x00000020   Code   RO         3983    i.__mathlib_dbl_invalid  m_wm.l(dunder.o)
    0x08005618   0x00000020   Code   RO         3986    i.__mathlib_dbl_underflow  m_wm.l(dunder.o)
    0x08005638   0x0000000e   Code   RO         3828    i._is_digit         c_w.l(__printf_wp.o)
    0x08005646   0x00000004   Code   RO         3763    i._sys_exit         uart_debug.o
    0x0800564a   0x00000036   Code   RO         2766    i.chr2hex           common.o
    0x08005680   0x0000006c   Code   RO         2853    i.days              lat_longitude.o
    0x080056ec   0x000001c4   Code   RO         2854    i.e                 lat_longitude.o
    0x080058b0   0x00000048   Code   RO         2855    i.earth_tilt        lat_longitude.o
    0x080058f8   0x00000104   Code   RO         2856    i.ecliptic_longitude  lat_longitude.o
    0x080059fc   0x00000018   Code   RO         3996    i.fabs              m_wm.l(fabs.o)
    0x08005a14   0x0000001c   Code   RO         3764    i.fputc             uart_debug.o
    0x08005a30   0x00000110   Code   RO         2857    i.get_glat          lat_longitude.o
    0x08005b40   0x00000110   Code   RO         2858    i.get_glong         lat_longitude.o
    0x08005c50   0x00000022   Code   RO         2767    i.hex2chr           common.o
    0x08005c72   0x00000032   Code   RO         2859    i.leap_year         lat_longitude.o
    0x08005ca4   0x00000032   Code   RO         2511    i.main              main.o
    0x08005cd6   0x00000002   PAD
    0x08005cd8   0x00000018   Code   RO         3272    i.pcTaskGetTaskName  tasks.o
    0x08005cf0   0x00000064   Code   RO         2585    i.printf_buff       sys_debug.o
    0x08005d54   0x00000050   Code   RO         2587    i.printf_str        sys_debug.o
    0x08005da4   0x00000054   Code   RO         3273    i.prvAddCurrentTaskToDelayedList  tasks.o
    0x08005df8   0x00000042   Code   RO         3274    i.prvAllocateTCBAndStack  tasks.o
    0x08005e3a   0x00000002   PAD
    0x08005e3c   0x00000064   Code   RO         3275    i.prvCheckTasksWaitingTermination  tasks.o
    0x08005ea0   0x0000002a   Code   RO         3139    i.prvCopyDataFromQueue  queue.o
    0x08005eca   0x00000080   Code   RO         3140    i.prvCopyDataToQueue  queue.o
    0x08005f4a   0x00000012   Code   RO         3276    i.prvDeleteTCB      tasks.o
    0x08005f5c   0x00000038   Code   RO         3056    i.prvHeapInit       heap_2.o
    0x08005f94   0x00000028   Code   RO         3277    i.prvIdleTask       tasks.o
    0x08005fbc   0x00000062   Code   RO         3278    i.prvInitialiseTCBVariables  tasks.o
    0x0800601e   0x00000002   PAD
    0x08006020   0x00000068   Code   RO         3279    i.prvInitialiseTaskLists  tasks.o
    0x08006088   0x0000001a   Code   RO         3141    i.prvIsQueueEmpty   queue.o
    0x080060a2   0x0000001e   Code   RO         3142    i.prvIsQueueFull    queue.o
    0x080060c0   0x00000034   Code   RO         3280    i.prvResetNextTaskUnblockTime  tasks.o
    0x080060f4   0x00000016   Code   RO         2989    i.prvTaskExitError  port.o
    0x0800610a   0x0000007e   Code   RO         3143    i.prvUnlockQueue    queue.o
    0x08006188   0x000000b8   Code   RO         3057    i.pvPortMalloc      heap_2.o
    0x08006240   0x00000020   Code   RO         3282    i.pvTaskIncrementMutexHeldCount  tasks.o
    0x08006260   0x00000028   Code   RO         2990    i.pxPortInitialiseStack  port.o
    0x08006288   0x000003c0   Code   RO         2860    i.resule_convert    lat_longitude.o
    0x08006648   0x00000258   Code   RO         2861    i.result_rise       lat_longitude.o
    0x080068a0   0x00000258   Code   RO         2862    i.result_set        lat_longitude.o
    0x08006af8   0x000003f4   Code   RO         2863    i.rise_set          lat_longitude.o
    0x08006eec   0x0000006e   Code   RO         4017    i.sqrt              m_wm.l(sqrt.o)
    0x08006f5a   0x00000002   PAD
    0x08006f5c   0x000000b4   Code   RO         2864    i.sun_deviation     lat_longitude.o
    0x08007010   0x00000060   Code   RO         2865    i.t_century         lat_longitude.o
    0x08007070   0x00000028   Code   RO         3103    i.uxListRemove      list.o
    0x08007098   0x00000048   Code   RO         2064    i.vApplicationStackOverflowHook  freertos_hook.o
    0x080070e0   0x00000002   Code   RO         2065    i.vApplicationTickHook  freertos_hook.o
    0x080070e2   0x00000002   PAD
    0x080070e4   0x00000054   Code   RO         2140    i.vBallastComm1Task  ballast_comm.o
    0x08007138   0x00000054   Code   RO         2251    i.vElectTask        electric.o
    0x0800718c   0x0000008c   Code   RO         2354    i.vGSMTask          gsm.o
    0x08007218   0x0000001a   Code   RO         3104    i.vListInitialise   list.o
    0x08007232   0x00000006   Code   RO         3105    i.vListInitialiseItem  list.o
    0x08007238   0x00000034   Code   RO         3106    i.vListInsert       list.o
    0x0800726c   0x00000018   Code   RO         3107    i.vListInsertEnd    list.o
    0x08007284   0x00000024   Code   RO         2992    i.vPortEnterCritical  port.o
    0x080072a8   0x00000020   Code   RO         2993    i.vPortExitCritical  port.o
    0x080072c8   0x00000040   Code   RO         3058    i.vPortFree         heap_2.o
    0x08007308   0x00000014   Code   RO         2994    i.vPortSetupTimerInterrupt  port.o
    0x0800731c   0x00000064   Code   RO         3288    i.vTaskDelay        tasks.o
    0x08007380   0x0000000c   Code   RO         3292    i.vTaskMissedYield  tasks.o
    0x0800738c   0x00000064   Code   RO         3294    i.vTaskPlaceOnEventList  tasks.o
    0x080073f0   0x000000b0   Code   RO         3296    i.vTaskPriorityInherit  tasks.o
    0x080074a0   0x00000018   Code   RO         3299    i.vTaskSetTimeOutState  tasks.o
    0x080074b8   0x00000064   Code   RO         3300    i.vTaskStartScheduler  tasks.o
    0x0800751c   0x00000010   Code   RO         3302    i.vTaskSuspendAll   tasks.o
    0x0800752c   0x00000098   Code   RO         3303    i.vTaskSwitchContext  tasks.o
    0x080075c4   0x00000040   Code   RO         2588    i.vUartDebugTask    sys_debug.o
    0x08007604   0x00000048   Code   RO         2995    i.xPortStartScheduler  port.o
    0x0800764c   0x00000034   Code   RO         2996    i.xPortSysTickHandler  port.o
    0x08007680   0x00000048   Code   RO         3148    i.xQueueCreateMutex  queue.o
    0x080076c8   0x00000046   Code   RO         3149    i.xQueueGenericCreate  queue.o
    0x0800770e   0x00000002   PAD
    0x08007710   0x00000144   Code   RO         3150    i.xQueueGenericReceive  queue.o
    0x08007854   0x0000007c   Code   RO         3151    i.xQueueGenericReset  queue.o
    0x080078d0   0x00000110   Code   RO         3152    i.xQueueGenericSend  queue.o
    0x080079e0   0x0000007e   Code   RO         3153    i.xQueueGenericSendFromISR  queue.o
    0x08007a5e   0x0000006e   Code   RO         3154    i.xQueueGiveFromISR  queue.o
    0x08007acc   0x0000005c   Code   RO         3304    i.xTaskCheckForTimeOut  tasks.o
    0x08007b28   0x00000108   Code   RO         3305    i.xTaskGenericCreate  tasks.o
    0x08007c30   0x0000000c   Code   RO         3308    i.xTaskGetCurrentTaskHandle  tasks.o
    0x08007c3c   0x0000000c   Code   RO         3309    i.xTaskGetTickCount  tasks.o
    0x08007c48   0x0000012c   Code   RO         3311    i.xTaskIncrementTick  tasks.o
    0x08007d74   0x00000084   Code   RO         3314    i.xTaskPriorityDisinherit  tasks.o
    0x08007df8   0x00000080   Code   RO         3315    i.xTaskRemoveFromEventList  tasks.o
    0x08007e78   0x000000e8   Code   RO         3317    i.xTaskResumeAll    tasks.o
    0x08007f60   0x00000002   Code   RO         2675    i.zigbee_config     gateway_protocol.o
    0x08007f62   0x00000002   PAD
    0x08007f64   0x0000002c   Code   RO         4084    locale$$code        c_w.l(lc_ctype_c.o)
    0x08007f90   0x00000018   Code   RO         3968    x$fpl$basic         fz_wm.l(basic.o)
    0x08007fa8   0x00000150   Code   RO         3866    x$fpl$dadd          fz_wm.l(daddsub_clz.o)
    0x080080f8   0x00000018   Code   RO         4057    x$fpl$dcmpinf       fz_wm.l(dcmpi.o)
    0x08008110   0x000002b0   Code   RO         3873    x$fpl$ddiv          fz_wm.l(ddiv.o)
    0x080083c0   0x0000005e   Code   RO         3876    x$fpl$dfix          fz_wm.l(dfix.o)
    0x0800841e   0x00000002   PAD
    0x08008420   0x0000005a   Code   RO         3880    x$fpl$dfixu         fz_wm.l(dfixu.o)
    0x0800847a   0x0000002e   Code   RO         3885    x$fpl$dflt          fz_wm.l(dflt_clz.o)
    0x080084a8   0x00000026   Code   RO         3884    x$fpl$dfltu         fz_wm.l(dflt_clz.o)
    0x080084ce   0x00000002   PAD
    0x080084d0   0x00000078   Code   RO         3970    x$fpl$dleqf         fz_wm.l(dleqf.o)
    0x08008548   0x00000154   Code   RO         3890    x$fpl$dmul          fz_wm.l(dmul.o)
    0x0800869c   0x0000009c   Code   RO         3972    x$fpl$dnaninf       fz_wm.l(dnaninf.o)
    0x08008738   0x0000000c   Code   RO         3974    x$fpl$dretinf       fz_wm.l(dretinf.o)
    0x08008744   0x0000006c   Code   RO         3892    x$fpl$drleqf        fz_wm.l(drleqf.o)
    0x080087b0   0x00000016   Code   RO         3867    x$fpl$drsb          fz_wm.l(daddsub_clz.o)
    0x080087c6   0x00000002   PAD
    0x080087c8   0x00000198   Code   RO         4059    x$fpl$dsqrt         fz_wm.l(dsqrt_umaal.o)
    0x08008960   0x000001d4   Code   RO         3868    x$fpl$dsub          fz_wm.l(daddsub_clz.o)
    0x08008b34   0x0000000a   Code   RO         4140    x$fpl$fpinit        fz_wm.l(fpinit.o)
    0x08008b3e   0x00000000   Code   RO         3976    x$fpl$usenofp       fz_wm.l(usenofp.o)
    0x08008b3e   0x00000002   PAD
    0x08008b40   0x00000008   Data   RO         2142    .constdata          ballast_comm.o
    0x08008b48   0x00000008   Data   RO         2253    .constdata          electric.o
    0x08008b50   0x00000028   Data   RO         2356    .constdata          gsm.o
    0x08008b78   0x00000050   Data   RO         3897    .constdata          m_wm.l(acos.o)
    0x08008bc8   0x00000050   Data   RO         3911    .constdata          m_wm.l(asin.o)
    0x08008c18   0x00000030   Data   RO         3978    .constdata          m_wm.l(cos_i.o)
    0x08008c48   0x000000c8   Data   RO         4006    .constdata          m_wm.l(rred.o)
    0x08008d10   0x00000028   Data   RO         4010    .constdata          m_wm.l(sin_i.o)
    0x08008d38   0x0000012f   Data   RO         2590    .conststring        sys_debug.o
    0x08008e67   0x00000001   PAD
    0x08008e68   0x00000020   Data   RO         4203    Region$$Table       anon$$obj.o
    0x08008e88   0x00000110   Data   RO         4083    locale$$data        c_w.l(lc_ctype_c.o)


    Execution Region RW_IRAM1 (Base: 0x20000000, Size: 0x0001ec08, Max: 0x00020000, ABSOLUTE, COMPRESSED[0x00000038])

    Base Addr    Size         Type   Attr      Idx    E Section Name        Object

    0x20000000   0x00000010   Data   RW          686    .data               stm32f4xx_rcc.o
    0x20000010   0x00000008   Data   RW         2143    .data               ballast_comm.o
    0x20000018   0x00000008   Data   RW         2254    .data               electric.o
    0x20000020   0x0000000e   Data   RW         2357    .data               gsm.o
    0x2000002e   0x00000002   PAD
    0x20000030   0x00000011   Data   RW         2591    .data               sys_debug.o
    0x20000041   0x00000003   PAD
    0x20000044   0x00000004   Data   RW         2814    .data               km_ctrl.o
    0x20000048   0x00000088   Data   RW         2867    .data               lat_longitude.o
    0x200000d0   0x00000004   Data   RW         2997    .data               port.o
    0x200000d4   0x00000018   Data   RW         3062    .data               heap_2.o
    0x200000ec   0x00000038   Data   RW         3320    .data               tasks.o
    0x20000124   0x00000008   Data   RW         3570    .data               rtc.o
    0x2000012c   0x00000004   Data   RW         3712    .data               norflash.o
    0x20000130   0x00000004   Data   RW         3765    .data               uart_debug.o
    0x20000134   0x000000cc   Zero   RW         2141    .bss                ballast_comm.o
    0x20000200   0x000000cc   Zero   RW         2252    .bss                electric.o
    0x200002cc   0x000001b4   Zero   RW         2355    .bss                gsm.o
    0x20000480   0x00000034   Zero   RW         2589    .bss                sys_debug.o
    0x200004b4   0x00000010   Zero   RW         2866    .bss                lat_longitude.o
    0x200004c4   0x0001e000   Zero   RW         3061    .bss                heap_2.o
    0x2001e4c4   0x000000c8   Zero   RW         3319    .bss                tasks.o
    0x2001e58c   0x0000001c   Zero   RW         3569    .bss                rtc.o
    0x2001e5a8   0x00000060   Zero   RW         4062    .bss                c_w.l(libspace.o)
    0x2001e608   0x00000200   Zero   RW            2    HEAP                startup_stm32f40_41xxx.o
    0x2001e808   0x00000400   Zero   RW            1    STACK               startup_stm32f40_41xxx.o



  Load Region LR$$.ARM.__AT_0x10000000 (Base: 0x10000000, Size: 0x00000000, Max: 0x0000c350, ABSOLUTE)

    Execution Region ER$$.ARM.__AT_0x10000000 (Base: 0x10000000, Size: 0x0000c350, Max: 0x0000c350, ABSOLUTE, UNINIT)

    Base Addr    Size         Type   Attr      Idx    E Section Name        Object

    0x10000000   0x0000c350   Zero   RW         2734    .ARM.__AT_0x10000000  ballast_protocol.o



  Load Region LR$$.ARM.__AT_0x1000C350 (Base: 0x1000c350, Size: 0x00000000, Max: 0x00001770, ABSOLUTE)

    Execution Region ER$$.ARM.__AT_0x1000C350 (Base: 0x1000c350, Size: 0x00001770, Max: 0x00001770, ABSOLUTE, UNINIT)

    Base Addr    Size         Type   Attr      Idx    E Section Name        Object

    0x1000c350   0x00001770   Zero   RW         2735    .ARM.__AT_0x1000C350  ballast_protocol.o



  Load Region LR$$.ARM.__AT_0x1000DAC0 (Base: 0x1000dac0, Size: 0x00000000, Max: 0x00001770, ABSOLUTE)

    Execution Region ER$$.ARM.__AT_0x1000DAC0 (Base: 0x1000dac0, Size: 0x00001770, Max: 0x00001770, ABSOLUTE, UNINIT)

    Base Addr    Size         Type   Attr      Idx    E Section Name        Object

    0x1000dac0   0x00001770   Zero   RW         2736    .ARM.__AT_0x1000DAC0  ballast_protocol.o


==============================================================================

Image component sizes


      Code (inc. data)   RO Data    RW Data    ZI Data      Debug   Object Name

       812        102          8          8        204      13264   ballast_comm.o
         2          0          0          0      62000       1610   ballast_protocol.o
       140          0          0          0          0       2672   common.o
       808         88          8          8        204       6511   electric.o
        74         38          0          0          0      11411   freertos_hook.o
       938         44          0          0          0       4986   fsmc_nor.o
       444          0          0          0          0       5036   gateway_protocol.o
      3010        924         40         14        436      47480   gsm.o
       304         46          0         24     122880       5263   heap_2.o
       220         38          0          4          0       1742   km_ctrl.o
      5914        376          0        136         16      15563   lat_longitude.o
       148          0          0          0          0       3350   list.o
        50          0          0          0          0        539   main.o
       140         24          0          0          0      44203   misc.o
       268         80          0          4          0       3315   norflash.o
       456         56          0          4          0      15696   port.o
      1450         14          0          0          0      19609   queue.o
       972         96          0          8         28       4634   rtc.o
        64         26        392          0       1536        912   startup_stm32f40_41xxx.o
       656         54          0          0          0      19133   stm32f4xx_dma.o
         0          0          0          0          0       1664   stm32f4xx_exti.o
       348         12          0          0          0      10065   stm32f4xx_fsmc.o
       222          0          0          0          0      10083   stm32f4xx_gpio.o
        20          0          0          0          0     268545   stm32f4xx_it.o
        12          6          0          0          0        558   stm32f4xx_pwr.o
       540         66          0         16          0      23179   stm32f4xx_rcc.o
       970         66          0          0          0      23826   stm32f4xx_rtc.o
       422          8          0          0          0      11065   stm32f4xx_usart.o
      1958        866        303         17         52       8285   sys_debug.o
       340         32          0          0          0       1605   system_stm32f4xx.o
      2470        368          0         56        200      20609   tasks.o
       256         14          0          4          0       3914   uart_debug.o

    ----------------------------------------------------------------------
     24466       3444        784        308     187556     610327   Object Totals
         0          0         32          0          0          0   (incl. Generated)
        38          0          1          5          0          0   (incl. Padding)

    ----------------------------------------------------------------------

      Code (inc. data)   RO Data    RW Data    ZI Data      Debug   Library Member Name

        60          8          0          0          0         84   __0sscanf.o
        90          0          0          0          0          0   __dczerorl2.o
         8          0          0          0          0         68   __main.o
       284          0          0          0          0        156   __printf_wp.o
         0          0          0          0          0          0   __rtentry.o
        12          0          0          0          0          0   __rtentry2.o
         6          0          0          0          0          0   __rtentry4.o
        52          8          0          0          0          0   __scatter.o
        28          0          0          0          0          0   __scatter_zi.o
        28          0          0          0          0         68   _chval.o
        44          0          0          0          0        108   _printf_char.o
        48          6          0          0          0         96   _printf_char_common.o
        36          4          0          0          0         80   _printf_char_file.o
         0          0          0          0          0          0   _printf_percent.o
         4          0          0          0          0          0   _printf_percent_end.o
         6          0          0          0          0          0   _printf_s.o
        82          0          0          0          0         80   _printf_str.o
        22          0          0          0          0        100   _rserrno.o
       884          6          0          0          0        100   _scanf.o
       332          0          0          0          0         96   _scanf_int.o
       224          0          0          0          0         96   _scanf_str.o
        64          0          0          0          0         84   _sgetc.o
        10          0          0          0          0         68   _sputc.o
        16          0          0          0          0         68   aeabi_memset.o
        12          0          0          0          0         72   exit.o
         8          0          0          0          0         68   ferror.o
         6          0          0          0          0        152   heapauxi.o
        18          0          0          0          0         76   isspace.o
        44         10        272          0          0         76   lc_ctype_c.o
         2          0          0          0          0          0   libinit.o
        24          0          0          0          0          0   libinit2.o
         2          0          0          0          0          0   libshutdown.o
         2          0          0          0          0          0   libshutdown2.o
         8          4          0          0         96         68   libspace.o
        24          4          0          0          0         84   noretval__2printf.o
        40          6          0          0          0         84   noretval__2sprintf.o
        16          4          0          0          0         76   rt_ctype_table.o
         8          4          0          0          0         68   rt_errno_addr_intlibspace.o
         8          4          0          0          0         68   rt_locale_intlibspace.o
        68          0          0          0          0         68   rt_memclr.o
        78          0          0          0          0         80   rt_memclr_w.o
       138          0          0          0          0         68   rt_memcpy_v6.o
       100          0          0          0          0         80   rt_memcpy_w.o
         2          0          0          0          0          0   rtexit.o
        10          0          0          0          0          0   rtexit2.o
        44          8          0          0          0         84   scanf_char.o
       128          0          0          0          0         68   strcmpv7m.o
        62          0          0          0          0         76   strlen.o
        86          0          0          0          0         76   strncpy.o
        36          0          0          0          0         80   strstr.o
        74          0          0          0          0         80   sys_stackheap_outer.o
         2          0          0          0          0         68   use_no_semi.o
         2          0          0          0          0         68   use_no_semi_2.o
        24          0          0          0          0        164   basic.o
       826         16          0          0          0        492   daddsub_clz.o
        24          0          0          0          0        116   dcmpi.o
       688        140          0          0          0        256   ddiv.o
        94          4          0          0          0        140   dfix.o
        90          4          0          0          0        140   dfixu.o
        84          0          0          0          0        232   dflt_clz.o
       120          4          0          0          0        140   dleqf.o
       340         12          0          0          0        152   dmul.o
       156          4          0          0          0        140   dnaninf.o
        12          0          0          0          0        116   dretinf.o
       108          0          0          0          0        128   drleqf.o
       408         56          0          0          0        168   dsqrt_umaal.o
        10          0          0          0          0        116   fpinit.o
         0          0          0          0          0          0   usenofp.o
       856        118         80          0          0        288   acos.o
       864         94         80          0          0        280   asin.o
       200         20          0          0          0        164   cos.o
       368         46         48          0          0        200   cos_i.o
        84         16          0          0          0        372   dunder.o
        24          0          0          0          0        124   fabs.o
        48          0          0          0          0        124   fpclassify.o
       248          0          0          0          0        152   poly.o
      1080        142        200          0          0        188   rred.o
       200         20          0          0          0        164   sin.o
       304         24         40          0          0        208   sin_i.o
       110          0          0          0          0        148   sqrt.o

    ----------------------------------------------------------------------
     10790        796        720          0         96       8052   Library Totals
        28          0          0          0          0          0   (incl. Padding)

    ----------------------------------------------------------------------

      Code (inc. data)   RO Data    RW Data    ZI Data      Debug   Library Name

      3392         76        272          0         96       3140   c_w.l
      2984        240          0          0          0       2500   fz_wm.l
      4386        480        448          0          0       2412   m_wm.l

    ----------------------------------------------------------------------
     10790        796        720          0         96       8052   Library Totals

    ----------------------------------------------------------------------

==============================================================================


      Code (inc. data)   RO Data    RW Data    ZI Data      Debug   

     35256       4240       1504        308     187652     593159   Grand Totals
     35256       4240       1504         56     187652     593159   ELF Image Totals (compressed)
     35256       4240       1504         56          0          0   ROM Totals

==============================================================================

    Total RO  Size (Code + RO Data)                36760 (  35.90kB)
    Total RW  Size (RW Data + ZI Data)            187960 ( 183.55kB)
    Total ROM Size (Code + RO Data + RW Data)      36816 (  35.95kB)

==============================================================================

